Archive member included because of file (symbol)

contiki-avr-atmega128rfa1.a(contiki-main.o)
                              /usr/lib/gcc/avr/4.8.1/../../../avr/lib/avr51/crtm128rfa1.o (main)
contiki-avr-atmega128rfa1.a(params.o)
                              contiki-avr-atmega128rfa1.a(contiki-main.o) (params_get_channel)
contiki-avr-atmega128rfa1.a(clock.o)
                              contiki-avr-atmega128rfa1.a(contiki-main.o) (clock_init)
contiki-avr-atmega128rfa1.a(rs232.o)
                              contiki-avr-atmega128rfa1.a(contiki-main.o) (rs232_init)
contiki-avr-atmega128rfa1.a(watchdog.o)
                              contiki-avr-atmega128rfa1.a(contiki-main.o) (watchdog_init)
contiki-avr-atmega128rfa1.a(random.o)
                              contiki-avr-atmega128rfa1.a(contiki-main.o) (random_init)
contiki-avr-atmega128rfa1.a(rf230bb.o)
                              contiki-avr-atmega128rfa1.a(clock.o) (RF230_receive_on)
contiki-avr-atmega128rfa1.a(halbb.o)
                              contiki-avr-atmega128rfa1.a(rf230bb.o) (hal_init)
contiki-avr-atmega128rfa1.a(autostart.o)
                              contiki-avr-atmega128rfa1.a(contiki-main.o) (autostart_start)
contiki-avr-atmega128rfa1.a(energest.o)
                              contiki-avr-atmega128rfa1.a(rf230bb.o) (energest_current_time)
contiki-avr-atmega128rfa1.a(ctimer.o)
                              contiki-avr-atmega128rfa1.a(contiki-main.o) (ctimer_init)
contiki-avr-atmega128rfa1.a(etimer.o)
                              contiki-avr-atmega128rfa1.a(clock.o) (etimer_request_poll)
contiki-avr-atmega128rfa1.a(process.o)
                              contiki-avr-atmega128rfa1.a(ctimer.o) (process_current)
contiki-avr-atmega128rfa1.a(rtimer.o)
                              contiki-avr-atmega128rfa1.a(contiki-main.o) (rtimer_init)
contiki-avr-atmega128rfa1.a(timer.o)
                              contiki-avr-atmega128rfa1.a(etimer.o) (timer_set)
contiki-avr-atmega128rfa1.a(list.o)
                              contiki-avr-atmega128rfa1.a(ctimer.o) (list_init)
contiki-avr-atmega128rfa1.a(print-stats.o)
                              contiki-avr-atmega128rfa1.a(contiki-main.o) (print_stats)
contiki-avr-atmega128rfa1.a(uip-ds6.o)
                              objs-128rfa1/sdds-contiki-NodeConfig.o (uip_ds6_if)
contiki-avr-atmega128rfa1.a(uip-ds6-route.o)
                              contiki-avr-atmega128rfa1.a(uip-ds6.o) (uip_ds6_route_init)
contiki-avr-atmega128rfa1.a(uip6.o)
                              objs-128rfa1/sdds-contiki-NodeConfig.o (uip_htons)
contiki-avr-atmega128rfa1.a(uip-ds6-nbr.o)
                              contiki-avr-atmega128rfa1.a(contiki-main.o) (ds6_neighbors)
contiki-avr-atmega128rfa1.a(uip-nd6.o)
                              contiki-avr-atmega128rfa1.a(uip-ds6-nbr.o) (uip_nd6_ns_output)
contiki-avr-atmega128rfa1.a(sicslowpan.o)
                              contiki-avr-atmega128rfa1.a(contiki-main.o) (sicslowpan_driver)
contiki-avr-atmega128rfa1.a(uip-packetqueue)
                              contiki-avr-atmega128rfa1.a(uip-ds6-nbr.o) (uip_packetqueue_new)
contiki-avr-atmega128rfa1.a(uip-udp-packet.)
                              objs-128rfa1/sdds-contiki-UDP.o (uip_udp_packet_sendto)
contiki-avr-atmega128rfa1.a(tcpip.o)
                              contiki-avr-atmega128rfa1.a(sicslowpan.o) (tcpip_set_outputfunc)
contiki-avr-atmega128rfa1.a(uip-split.o)
                              contiki-avr-atmega128rfa1.a(tcpip.o) (uip_split_output)
contiki-avr-atmega128rfa1.a(simple-udp.o)
                              objs-128rfa1/sdds-contiki-UDP.o (simple_udp_register)
contiki-avr-atmega128rfa1.a(uiplib.o)
                              objs-128rfa1/sdds-contiki-UDP.o (uiplib_ip6addrconv)
contiki-avr-atmega128rfa1.a(uip-debug.o)
                              objs-128rfa1/sdds-contiki-UDP.o (uip_debug_ipaddr_print)
contiki-avr-atmega128rfa1.a(rpl-ext-header.)
                              contiki-avr-atmega128rfa1.a(uip6.o) (rpl_verify_header)
contiki-avr-atmega128rfa1.a(rpl.o)
                              contiki-avr-atmega128rfa1.a(uip-ds6-nbr.o) (rpl_link_neighbor_callback)
contiki-avr-atmega128rfa1.a(rpl-mrhof.o)
                              contiki-avr-atmega128rfa1.a(rpl.o) (rpl_mrhof)
contiki-avr-atmega128rfa1.a(rpl-dag.o)
                              contiki-avr-atmega128rfa1.a(rpl-mrhof.o) (rpl_get_nbr)
contiki-avr-atmega128rfa1.a(nullmac.o)
                              contiki-avr-atmega128rfa1.a(contiki-main.o) (nullmac_driver)
contiki-avr-atmega128rfa1.a(framer-802154.o)
                              contiki-avr-atmega128rfa1.a(sicslowpan.o) (framer_802154)
contiki-avr-atmega128rfa1.a(frame802154.o)
                              contiki-avr-atmega128rfa1.a(framer-802154.o) (frame802154_hdrlen)
contiki-avr-atmega128rfa1.a(framer.o)
                              contiki-avr-atmega128rfa1.a(framer-802154.o) (framer_canonical_create_and_secure)
contiki-avr-atmega128rfa1.a(queuebuf.o)
                              contiki-avr-atmega128rfa1.a(contiki-main.o) (queuebuf_init)
contiki-avr-atmega128rfa1.a(nbr-table.o)
                              contiki-avr-atmega128rfa1.a(uip-ds6-route.o) (nbr_table_register)
contiki-avr-atmega128rfa1.a(packetbuf.o)
                              contiki-avr-atmega128rfa1.a(framer.o) (packetbuf_compact)
contiki-avr-atmega128rfa1.a(linkaddr.o)
                              contiki-avr-atmega128rfa1.a(sicslowpan.o) (linkaddr_copy)
contiki-avr-atmega128rfa1.a(sicslowmac.o)
                              contiki-avr-atmega128rfa1.a(contiki-main.o) (sicslowmac_driver)
contiki-avr-atmega128rfa1.a(rtimer-arch.o)
                              contiki-avr-atmega128rfa1.a(rtimer.o) (rtimer_arch_init)
contiki-avr-atmega128rfa1.a(stimer.o)
                              contiki-avr-atmega128rfa1.a(uip-ds6.o) (stimer_set)
contiki-avr-atmega128rfa1.a(memb.o)
                              contiki-avr-atmega128rfa1.a(uip-ds6-route.o) (memb_init)
contiki-avr-atmega128rfa1.a(nullsec.o)
                              contiki-avr-atmega128rfa1.a(sicslowpan.o) (nullsec_driver)
contiki-avr-atmega128rfa1.a(uip-icmp6.o)
                              contiki-avr-atmega128rfa1.a(uip6.o) (uip_icmp6_input)
contiki-avr-atmega128rfa1.a(rpl-icmp6.o)
                              contiki-avr-atmega128rfa1.a(rpl-ext-header.) (dao_output_target)
contiki-avr-atmega128rfa1.a(rpl-timers.o)
                              contiki-avr-atmega128rfa1.a(rpl.o) (rpl_reset_periodic_timer)
/usr/lib/gcc/avr/4.8.1/avr51/libgcc.a(_udivmodhi4.o)
                              contiki-avr-atmega128rfa1.a(contiki-main.o) (__udivmodhi4)
/usr/lib/gcc/avr/4.8.1/avr51/libgcc.a(_divmodhi4.o)
                              objs-128rfa1/sdds-Msg.o (__divmodhi4)
/usr/lib/gcc/avr/4.8.1/avr51/libgcc.a(_udivmodsi4.o)
                              contiki-avr-atmega128rfa1.a(contiki-main.o) (__udivmodsi4)
/usr/lib/gcc/avr/4.8.1/avr51/libgcc.a(_exit.o)
                              /usr/lib/gcc/avr/4.8.1/../../../avr/lib/avr51/crtm128rfa1.o (exit)
/usr/lib/gcc/avr/4.8.1/avr51/libgcc.a(_tablejump.o)
                              objs-128rfa1/sdds-SNPS.o (__tablejump2__)
/usr/lib/gcc/avr/4.8.1/avr51/libgcc.a(_copy_data.o)
                              sdds.co (__do_copy_data)
/usr/lib/gcc/avr/4.8.1/avr51/libgcc.a(_clear_bss.o)
                              sdds.co (__do_clear_bss)
/usr/lib/gcc/avr/4.8.1/avr51/libgcc.a(_bswapsi2.o)
                              contiki-avr-atmega128rfa1.a(uip6.o) (__bswapsi2)
/usr/lib/gcc/avr/4.8.1/avr51/libgcc.a(_umulhisi3.o)
                              contiki-avr-atmega128rfa1.a(rpl.o) (__umulhisi3)
/usr/lib/gcc/avr/4.8.1/../../../avr/lib/avr51/libc.a(malloc.o)
                              objs-128rfa1/sdds-contiki-Memory.o (malloc)
/usr/lib/gcc/avr/4.8.1/../../../avr/lib/avr51/libc.a(rand.o)
                              contiki-avr-atmega128rfa1.a(random.o) (rand)
/usr/lib/gcc/avr/4.8.1/../../../avr/lib/avr51/libc.a(abort.o)
                              objs-128rfa1/sdds-contiki-Log.o (abort)
/usr/lib/gcc/avr/4.8.1/../../../avr/lib/avr51/libc.a(memcmp.o)
                              objs-128rfa1/sdds-contiki-UDP.o (memcmp)
/usr/lib/gcc/avr/4.8.1/../../../avr/lib/avr51/libc.a(memcpy.o)
                              objs-128rfa1/sdds-contiki-UDP.o (memcpy)
/usr/lib/gcc/avr/4.8.1/../../../avr/lib/avr51/libc.a(memmove.o)
                              contiki-avr-atmega128rfa1.a(uip6.o) (memmove)
/usr/lib/gcc/avr/4.8.1/../../../avr/lib/avr51/libc.a(memset.o)
                              contiki-avr-atmega128rfa1.a(sicslowpan.o) (memset)
/usr/lib/gcc/avr/4.8.1/../../../avr/lib/avr51/libc.a(fprintf.o)
                              objs-128rfa1/sdds-BuiltinTopic.o (fprintf)
/usr/lib/gcc/avr/4.8.1/../../../avr/lib/avr51/libc.a(iob.o)
                              objs-128rfa1/sdds-BuiltinTopic.o (__iob)
/usr/lib/gcc/avr/4.8.1/../../../avr/lib/avr51/libc.a(printf.o)
                              objs-128rfa1/sdds-BuiltinTopic.o (printf)
/usr/lib/gcc/avr/4.8.1/../../../avr/lib/avr51/libc.a(printf_p.o)
                              objs-128rfa1/sdds-contiki-UDP.o (printf_P)
/usr/lib/gcc/avr/4.8.1/../../../avr/lib/avr51/libc.a(puts.o)
                              objs-128rfa1/sdds-Debug.o (puts)
/usr/lib/gcc/avr/4.8.1/../../../avr/lib/avr51/libc.a(sprintf.o)
                              objs-128rfa1/sdds-SNPS.o (sprintf)
/usr/lib/gcc/avr/4.8.1/../../../avr/lib/avr51/libc.a(vprintf.o)
                              objs-128rfa1/sdds-contiki-Log.o (vprintf)
/usr/lib/gcc/avr/4.8.1/../../../avr/lib/avr51/libc.a(vfprintf_std.o)
                              /usr/lib/gcc/avr/4.8.1/../../../avr/lib/avr51/libc.a(fprintf.o) (vfprintf)
/usr/lib/gcc/avr/4.8.1/../../../avr/lib/avr51/libc.a(eerd_block_atmega128rfa1.o)
                              contiki-avr-atmega128rfa1.a(params.o) (__eerd_block_m128rfa1)
/usr/lib/gcc/avr/4.8.1/../../../avr/lib/avr51/libc.a(eerd_byte_atmega128rfa1.o)
                              contiki-avr-atmega128rfa1.a(params.o) (__eerd_byte_m128rfa1)
/usr/lib/gcc/avr/4.8.1/../../../avr/lib/avr51/libc.a(eerd_word_atmega128rfa1.o)
                              contiki-avr-atmega128rfa1.a(params.o) (__eerd_word_m128rfa1)
/usr/lib/gcc/avr/4.8.1/../../../avr/lib/avr51/libc.a(eewr_block_atmega128rfa1.o)
                              contiki-avr-atmega128rfa1.a(params.o) (__eewr_block_m128rfa1)
/usr/lib/gcc/avr/4.8.1/../../../avr/lib/avr51/libc.a(eewr_byte_atmega128rfa1.o)
                              contiki-avr-atmega128rfa1.a(params.o) (__eewr_byte_m128rfa1)
/usr/lib/gcc/avr/4.8.1/../../../avr/lib/avr51/libc.a(eewr_word_atmega128rfa1.o)
                              contiki-avr-atmega128rfa1.a(params.o) (__eewr_word_m128rfa1)
/usr/lib/gcc/avr/4.8.1/../../../avr/lib/avr51/libc.a(strnlen_P.o)
                              /usr/lib/gcc/avr/4.8.1/../../../avr/lib/avr51/libc.a(vfprintf_std.o) (strnlen_P)
/usr/lib/gcc/avr/4.8.1/../../../avr/lib/avr51/libc.a(strnlen.o)
                              /usr/lib/gcc/avr/4.8.1/../../../avr/lib/avr51/libc.a(vfprintf_std.o) (strnlen)
/usr/lib/gcc/avr/4.8.1/../../../avr/lib/avr51/libc.a(fputc.o)
                              /usr/lib/gcc/avr/4.8.1/../../../avr/lib/avr51/libc.a(vfprintf_std.o) (fputc)
/usr/lib/gcc/avr/4.8.1/../../../avr/lib/avr51/libc.a(ultoa_invert.o)
                              /usr/lib/gcc/avr/4.8.1/../../../avr/lib/avr51/libc.a(vfprintf_std.o) (__ultoa_invert)
/usr/lib/gcc/avr/4.8.1/avr51/libgcc.a(_divmodsi4.o)
                              /usr/lib/gcc/avr/4.8.1/../../../avr/lib/avr51/libc.a(rand.o) (__divmodsi4)
/usr/lib/gcc/avr/4.8.1/avr51/libgcc.a(_negsi2.o)
                              /usr/lib/gcc/avr/4.8.1/avr51/libgcc.a(_divmodsi4.o) (__negsi2)
/usr/lib/gcc/avr/4.8.1/avr51/libgcc.a(_muluhisi3.o)
                              /usr/lib/gcc/avr/4.8.1/../../../avr/lib/avr51/libc.a(rand.o) (__muluhisi3)
/usr/lib/gcc/avr/4.8.1/avr51/libgcc.a(_mulshisi3.o)
                              /usr/lib/gcc/avr/4.8.1/../../../avr/lib/avr51/libc.a(rand.o) (__mulohisi3)

Allocating common symbols
Common symbol       size              file

energest_total_time
                    0x30              contiki-avr-atmega128rfa1.a(energest.o)
g_DCPSTopic_reader  0x2               objs-128rfa1/sdds-BuiltinTopic.o
uip_ds6_timer_ra    0x8               contiki-avr-atmega128rfa1.a(uip-ds6.o)
rf230_last_correlation
                    0x1               contiki-avr-atmega128rfa1.a(rf230bb.o)
rf230_last_rssi     0x1               contiki-avr-atmega128rfa1.a(rf230bb.o)
uip_ds6_if          0x11b             contiki-avr-atmega128rfa1.a(uip-ds6.o)
uip_ds6_netif_addr_list_offset
                    0x1               contiki-avr-atmega128rfa1.a(uip-ds6.o)
g_Beta_topic        0x2               objs-128rfa1/atmega_sdds_impl.o
uip_len             0x2               contiki-avr-atmega128rfa1.a(uip6.o)
g_DCPSPublication_pool
                    0x1e              objs-128rfa1/sdds-BuiltinTopic.o
g_Beta_writer       0x2               objs-128rfa1/atmega_sdds_impl.o
RF230_receivefail   0x2               contiki-avr-atmega128rfa1.a(rf230bb.o)
g_DCPSSubscription_reader
                    0x2               objs-128rfa1/sdds-BuiltinTopic.o
g_builtin_topic_net_address
                    0x2               objs-128rfa1/sdds-contiki-UDP.o
energest_total_count
                    0x2               contiki-avr-atmega128rfa1.a(energest.o)
input_handler_1     0x2               contiki-avr-atmega128rfa1.a(rs232.o)
uip_ds6_addr_size   0x1               contiki-avr-atmega128rfa1.a(uip-ds6.o)
g_Alpha_pool        0x5               objs-128rfa1/atmega_sdds_impl.o
uip_sappdata        0x2               contiki-avr-atmega128rfa1.a(uip6.o)
energest_current_mode
                    0xc               contiki-avr-atmega128rfa1.a(energest.o)
packetbuf_addrs     0x10              contiki-avr-atmega128rfa1.a(packetbuf.o)
uip_acc32           0x4               contiki-avr-atmega128rfa1.a(uip6.o)
g_multi_connection  0x1c              objs-128rfa1/sdds-contiki-UDP.o
uip_ds6_prefix_list
                    0x70              contiki-avr-atmega128rfa1.a(uip-ds6.o)
frag_sender         0x8               contiki-avr-atmega128rfa1.a(sicslowpan.o)
g_DCPSSubscription_pool
                    0x28              objs-128rfa1/sdds-BuiltinTopic.o
g_DCPSTopic_topic   0x2               objs-128rfa1/sdds-BuiltinTopic.o
uip_lladdr          0x8               contiki-avr-atmega128rfa1.a(uip6.o)
uip_aligned_buf     0x500             contiki-avr-atmega128rfa1.a(uip6.o)
uip_flags           0x1               contiki-avr-atmega128rfa1.a(uip6.o)
__brkval            0x2               /usr/lib/gcc/avr/4.8.1/../../../avr/lib/avr51/libc.a(malloc.o)
uip_ds6_timer_periodic
                    0x8               contiki-avr-atmega128rfa1.a(uip-ds6.o)
ledtimer            0x2               contiki-avr-atmega128rfa1.a(contiki-main.o)
rf230_smallest_rssi
                    0x1               contiki-avr-atmega128rfa1.a(rf230bb.o)
uip_next_hdr        0x2               contiki-avr-atmega128rfa1.a(uip6.o)
linkaddr_node_addr  0x8               contiki-avr-atmega128rfa1.a(linkaddr.o)
default_instance    0x2               contiki-avr-atmega128rfa1.a(rpl-dag.o)
rf230_pending       0x1               contiki-avr-atmega128rfa1.a(rf230bb.o)
uip_udp_conn        0x2               contiki-avr-atmega128rfa1.a(uip6.o)
rf230_ccawait       0x1               contiki-avr-atmega128rfa1.a(rf230bb.o)
RF230_receivepackets
                    0x2               contiki-avr-atmega128rfa1.a(rf230bb.o)
packetbuf_attrs     0x1e              contiki-avr-atmega128rfa1.a(packetbuf.o)
rf230_txendwait     0x1               contiki-avr-atmega128rfa1.a(rf230bb.o)
g_DCPSPublication_writer
                    0x2               objs-128rfa1/sdds-BuiltinTopic.o
g_Alpha_topic       0x2               objs-128rfa1/atmega_sdds_impl.o
g_DCPSParticipant_pool
                    0x14              objs-128rfa1/sdds-BuiltinTopic.o
instance_table      0xc6              contiki-avr-atmega128rfa1.a(rpl-dag.o)
g_DCPSSubscription_writer
                    0x2               objs-128rfa1/sdds-BuiltinTopic.o
radioontime         0x4               contiki-avr-atmega128rfa1.a(clock.o)
uip_appdata         0x2               contiki-avr-atmega128rfa1.a(uip6.o)
uip_conn            0x2               contiki-avr-atmega128rfa1.a(uip6.o)
rxframe_tail        0x1               contiki-avr-atmega128rfa1.a(rf230bb.o)
tcpip_event         0x1               contiki-avr-atmega128rfa1.a(tcpip.o)
uip_conns           0xb0              contiki-avr-atmega128rfa1.a(uip6.o)
uip_icmp6_conns     0x4               contiki-avr-atmega128rfa1.a(uip6.o)
g_Beta_pool         0x5               objs-128rfa1/atmega_sdds_impl.o
rxframe_head        0x1               contiki-avr-atmega128rfa1.a(rf230bb.o)
rxframe             0x186             contiki-avr-atmega128rfa1.a(rf230bb.o)
rf230_wakewait      0x1               contiki-avr-atmega128rfa1.a(rf230bb.o)
sleepseconds        0x4               contiki-avr-atmega128rfa1.a(clock.o)
seconds             0x4               contiki-avr-atmega128rfa1.a(clock.o)
g_DCPSPublication_reader
                    0x2               objs-128rfa1/sdds-BuiltinTopic.o
input_handler_0     0x2               contiki-avr-atmega128rfa1.a(rs232.o)
g_DCPSTopic_writer  0x2               objs-128rfa1/sdds-BuiltinTopic.o
RF230_sendpackets   0x2               contiki-avr-atmega128rfa1.a(rf230bb.o)
g_DCPSParticipant_reader
                    0x2               objs-128rfa1/sdds-BuiltinTopic.o
BuiltinTopic_participantID
                    0x2               objs-128rfa1/sdds-DataSource.o
uip_listenports     0x8               contiki-avr-atmega128rfa1.a(uip6.o)
g_Alpha_writer      0x2               objs-128rfa1/atmega_sdds_impl.o
RF230_sendfail      0x2               contiki-avr-atmega128rfa1.a(rf230bb.o)
g_DCPSParticipant_writer
                    0x2               objs-128rfa1/sdds-BuiltinTopic.o
g_DCPSTopic_pool    0x8c              objs-128rfa1/sdds-BuiltinTopic.o
energest_current_time
                    0x18              contiki-avr-atmega128rfa1.a(energest.o)
clocktime           0x4               contiki-avr-atmega128rfa1.a(contiki-main.o)
g_DCPSSubscription_topic
                    0x2               objs-128rfa1/sdds-BuiltinTopic.o
RF230_receive_on    0x1               contiki-avr-atmega128rfa1.a(rf230bb.o)
__flp               0x2               /usr/lib/gcc/avr/4.8.1/../../../avr/lib/avr51/libc.a(malloc.o)
g_DCPSParticipant_topic
                    0x2               objs-128rfa1/sdds-BuiltinTopic.o
__iob               0x6               /usr/lib/gcc/avr/4.8.1/../../../avr/lib/avr51/libc.a(iob.o)
g_DCPSPublication_topic
                    0x2               objs-128rfa1/sdds-BuiltinTopic.o
tcpip_icmp6_event   0x1               contiki-avr-atmega128rfa1.a(tcpip.o)
uip_slen            0x2               contiki-avr-atmega128rfa1.a(uip6.o)
g_connection        0x1c              objs-128rfa1/sdds-contiki-UDP.o
uip_udp_conns       0xfa              contiki-avr-atmega128rfa1.a(uip6.o)

Discarded input sections

 .bss           0x0000000000000000        0x0 /usr/lib/gcc/avr/4.8.1/../../../avr/lib/avr51/crtm128rfa1.o
 .text          0x0000000000000000        0x0 sdds.co
 .bss           0x0000000000000000        0x0 sdds.co
 .text          0x0000000000000000        0x0 objs-128rfa1/sdds-DataSource.o
 .bss           0x0000000000000000        0x0 objs-128rfa1/sdds-DataSource.o
 .text          0x0000000000000000        0x0 objs-128rfa1/sdds-BuiltinTopic.o
 .bss           0x0000000000000000        0x0 objs-128rfa1/sdds-BuiltinTopic.o
 .text.BuiltinTopic_printSubPool
                0x0000000000000000       0x64 objs-128rfa1/sdds-BuiltinTopic.o
 .text.BuiltinTopic_printTopicAddr
                0x0000000000000000       0x72 objs-128rfa1/sdds-BuiltinTopic.o
 .text.DDS_DCPSTopicDataReader_take_next_sample
                0x0000000000000000       0x1c objs-128rfa1/sdds-BuiltinTopic.o
 .text.DDS_DCPSTopicDataWriter_write
                0x0000000000000000       0x14 objs-128rfa1/sdds-BuiltinTopic.o
 .text.DDS_DCPSPublicationDataReader_take_next_sample
                0x0000000000000000       0x1c objs-128rfa1/sdds-BuiltinTopic.o
 .text.DDS_DCPSSubscriptionDataWriter_write
                0x0000000000000000       0x4a objs-128rfa1/sdds-BuiltinTopic.o
 .text          0x0000000000000000        0x0 objs-128rfa1/sdds-sDDS.o
 .bss           0x0000000000000000        0x0 objs-128rfa1/sdds-sDDS.o
 .text          0x0000000000000000        0x0 objs-128rfa1/sdds-DataSink.o
 .bss           0x0000000000000000        0x0 objs-128rfa1/sdds-DataSink.o
 .text.BuiltinTopicDataReader_encode
                0x0000000000000000       0x5a objs-128rfa1/sdds-DataSink.o
 .text.BuiltinTopic_writeDataReaders2Buf
                0x0000000000000000       0x66 objs-128rfa1/sdds-DataSink.o
 .text.DataSink_set_on_data_avail_listener
                0x0000000000000000        0xa objs-128rfa1/sdds-DataSink.o
 .text          0x0000000000000000        0x0 objs-128rfa1/sdds-Marshalling.o
 .bss           0x0000000000000000        0x0 objs-128rfa1/sdds-Marshalling.o
 .text.Marshalling_dec_bool
                0x0000000000000000        0xc objs-128rfa1/sdds-Marshalling.o
 .text.Marshalling_dec_int8
                0x0000000000000000        0xc objs-128rfa1/sdds-Marshalling.o
 .text.Marshalling_dec_int16
                0x0000000000000000        0xc objs-128rfa1/sdds-Marshalling.o
 .text.Marshalling_dec_int32
                0x0000000000000000        0xc objs-128rfa1/sdds-Marshalling.o
 .text.Marshalling_dec_uint32
                0x0000000000000000        0xc objs-128rfa1/sdds-Marshalling.o
 .text.Marshalling_enc_bool
                0x0000000000000000        0xc objs-128rfa1/sdds-Marshalling.o
 .text.Marshalling_enc_int16
                0x0000000000000000        0xc objs-128rfa1/sdds-Marshalling.o
 .text.Marshalling_enc_int32
                0x0000000000000000        0xc objs-128rfa1/sdds-Marshalling.o
 .text.Marshalling_enc_uint32
                0x0000000000000000        0xc objs-128rfa1/sdds-Marshalling.o
 .text          0x0000000000000000        0x0 objs-128rfa1/sdds-NetBuffRef.o
 .bss           0x0000000000000000        0x0 objs-128rfa1/sdds-NetBuffRef.o
 .text          0x0000000000000000        0x0 objs-128rfa1/sdds-TopicDB.o
 .bss           0x0000000000000000        0x0 objs-128rfa1/sdds-TopicDB.o
 .text.BuiltinTopicTopic_encode
                0x0000000000000000       0x50 objs-128rfa1/sdds-TopicDB.o
 .text.TopicDB_checkTopic
                0x0000000000000000       0x32 objs-128rfa1/sdds-TopicDB.o
 .text.BuiltinTopic_writeTopics2Buf
                0x0000000000000000       0x4e objs-128rfa1/sdds-TopicDB.o
 .text          0x0000000000000000        0x0 objs-128rfa1/sdds-Discovery.o
 .bss           0x0000000000000000        0x0 objs-128rfa1/sdds-Discovery.o
 .text          0x0000000000000000        0x0 objs-128rfa1/sdds-Msg.o
 .bss           0x0000000000000000        0x0 objs-128rfa1/sdds-Msg.o
 .text.MsgPool_getUnreadMsgCount
                0x0000000000000000        0xc objs-128rfa1/sdds-Msg.o
 .text          0x0000000000000000        0x0 objs-128rfa1/sdds-Locator.o
 .bss           0x0000000000000000        0x0 objs-128rfa1/sdds-Locator.o
 .text.Locator_removeFromList
                0x0000000000000000       0x74 objs-128rfa1/sdds-Locator.o
 .text          0x0000000000000000        0x0 objs-128rfa1/sdds-Management.o
 .bss           0x0000000000000000        0x0 objs-128rfa1/sdds-Management.o
 .text          0x0000000000000000        0x0 objs-128rfa1/sdds-Debug.o
 .bss           0x0000000000000000        0x0 objs-128rfa1/sdds-Debug.o
 .rodata.str1.1
                0x0000000000000000       0x20 objs-128rfa1/sdds-Debug.o
 .text.printRC  0x0000000000000000       0x38 objs-128rfa1/sdds-Debug.o
 .text          0x0000000000000000        0x0 objs-128rfa1/sdds-SNPS.o
 .bss           0x0000000000000000        0x0 objs-128rfa1/sdds-SNPS.o
 .text          0x0000000000000000        0x0 objs-128rfa1/sdds-LocatorDB.o
 .bss           0x0000000000000000        0x0 objs-128rfa1/sdds-LocatorDB.o
 .text.LocatorDB_newBroadLocator
                0x0000000000000000       0x58 objs-128rfa1/sdds-LocatorDB.o
 .text.LocatorDB_isUsedLocator
                0x0000000000000000       0x10 objs-128rfa1/sdds-LocatorDB.o
 .text          0x0000000000000000        0x0 objs-128rfa1/sdds-Topic.o
 .bss           0x0000000000000000        0x0 objs-128rfa1/sdds-Topic.o
 .text.Topic_getUnreadMsgCount
                0x0000000000000000        0x6 objs-128rfa1/sdds-Topic.o
 .text.Topic_addRemoteDataSource
                0x0000000000000000       0x54 objs-128rfa1/sdds-Topic.o
 .text          0x0000000000000000        0x0 objs-128rfa1/sdds-contiki-NodeConfig.o
 .bss           0x0000000000000000        0x0 objs-128rfa1/sdds-contiki-NodeConfig.o
 .text          0x0000000000000000        0x0 objs-128rfa1/sdds-contiki-UDP.o
 .bss           0x0000000000000000        0x0 objs-128rfa1/sdds-contiki-UDP.o
 .text.Network_createMulticastLocator
                0x0000000000000000       0x58 objs-128rfa1/sdds-contiki-UDP.o
 .rodata.__FUNCTION__.6050
                0x0000000000000000       0x1f objs-128rfa1/sdds-contiki-UDP.o
 .text          0x0000000000000000        0x0 objs-128rfa1/sdds-contiki-Log.o
 .bss           0x0000000000000000        0x0 objs-128rfa1/sdds-contiki-Log.o
 .text._log_info
                0x0000000000000000       0x54 objs-128rfa1/sdds-contiki-Log.o
 .text._log_warn
                0x0000000000000000       0x54 objs-128rfa1/sdds-contiki-Log.o
 .text._log_panic
                0x0000000000000000       0x50 objs-128rfa1/sdds-contiki-Log.o
 .progmem.data.__c.5326
                0x0000000000000000        0xf objs-128rfa1/sdds-contiki-Log.o
 .progmem.data.__c.5312
                0x0000000000000000        0xe objs-128rfa1/sdds-contiki-Log.o
 .progmem.data.__c.5305
                0x0000000000000000        0xe objs-128rfa1/sdds-contiki-Log.o
 .text          0x0000000000000000        0x0 objs-128rfa1/sdds-contiki-Memory.o
 .bss           0x0000000000000000        0x0 objs-128rfa1/sdds-contiki-Memory.o
 .text.Memory_free
                0x0000000000000000        0x4 objs-128rfa1/sdds-contiki-Memory.o
 .text          0x0000000000000000        0x0 objs-128rfa1/sdds-contiki-Task.o
 .bss           0x0000000000000000        0x0 objs-128rfa1/sdds-contiki-Task.o
 .text.Task_stop
                0x0000000000000000        0x8 objs-128rfa1/sdds-contiki-Task.o
 .text.Task_delete
                0x0000000000000000       0x50 objs-128rfa1/sdds-contiki-Task.o
 .text          0x0000000000000000        0x0 objs-128rfa1/atmega_sdds_impl.o
 .bss           0x0000000000000000        0x0 objs-128rfa1/atmega_sdds_impl.o
 .text.DDS_DataReader_set_listener
                0x0000000000000000       0x1a objs-128rfa1/atmega_sdds_impl.o
 .text          0x0000000000000000        0x0 objs-128rfa1/alpha-ds.o
 .bss           0x0000000000000000        0x0 objs-128rfa1/alpha-ds.o
 .rodata.str1.1
                0x0000000000000000       0x28 objs-128rfa1/alpha-ds.o
 .text.TopicMarshalling_Alpha_decode
                0x0000000000000000       0x8a objs-128rfa1/alpha-ds.o
 .rodata.__FUNCTION__.2464
                0x0000000000000000       0x1e objs-128rfa1/alpha-ds.o
 .text          0x0000000000000000        0x0 objs-128rfa1/beta-ds.o
 .bss           0x0000000000000000        0x0 objs-128rfa1/beta-ds.o
 .rodata.str1.1
                0x0000000000000000       0x28 objs-128rfa1/beta-ds.o
 .text.TopicMarshalling_Beta_decode
                0x0000000000000000       0x8a objs-128rfa1/beta-ds.o
 .rodata.__FUNCTION__.2464
                0x0000000000000000       0x1d objs-128rfa1/beta-ds.o
 .text          0x0000000000000000        0x0 contiki-avr-atmega128rfa1.a(contiki-main.o)
 .bss           0x0000000000000000        0x0 contiki-avr-atmega128rfa1.a(contiki-main.o)
 .text.log_message
                0x0000000000000000       0x22 contiki-avr-atmega128rfa1.a(contiki-main.o)
 .progmem.data.__c.5576
                0x0000000000000000        0x6 contiki-avr-atmega128rfa1.a(contiki-main.o)
 .text          0x0000000000000000        0x0 contiki-avr-atmega128rfa1.a(params.o)
 .bss           0x0000000000000000        0x0 contiki-avr-atmega128rfa1.a(params.o)
 .text          0x0000000000000000        0x0 contiki-avr-atmega128rfa1.a(clock.o)
 .bss           0x0000000000000000        0x0 contiki-avr-atmega128rfa1.a(clock.o)
 .text.clock_set_seconds
                0x0000000000000000       0x12 contiki-avr-atmega128rfa1.a(clock.o)
 .text.clock_wait
                0x0000000000000000       0x20 contiki-avr-atmega128rfa1.a(clock.o)
 .text.clock_delay_usec
                0x0000000000000000       0x1a contiki-avr-atmega128rfa1.a(clock.o)
 .text.clock_delay_msec
                0x0000000000000000       0x20 contiki-avr-atmega128rfa1.a(clock.o)
 .text.clock_adjust_ticks
                0x0000000000000000       0xbe contiki-avr-atmega128rfa1.a(clock.o)
 .text          0x0000000000000000        0x0 contiki-avr-atmega128rfa1.a(rs232.o)
 .bss           0x0000000000000000        0x0 contiki-avr-atmega128rfa1.a(rs232.o)
 .text.rs232_set_input
                0x0000000000000000       0x1c contiki-avr-atmega128rfa1.a(rs232.o)
 .text.rs232_print
                0x0000000000000000       0x32 contiki-avr-atmega128rfa1.a(rs232.o)
 .text.slip_arch_writeb
                0x0000000000000000        0xe contiki-avr-atmega128rfa1.a(rs232.o)
 .text          0x0000000000000000        0x0 contiki-avr-atmega128rfa1.a(watchdog.o)
 .bss           0x0000000000000000        0x0 contiki-avr-atmega128rfa1.a(watchdog.o)
 .text.watchdog_stop
                0x0000000000000000       0x12 contiki-avr-atmega128rfa1.a(watchdog.o)
 .text.watchdog_reboot
                0x0000000000000000       0x1a contiki-avr-atmega128rfa1.a(watchdog.o)
 .text          0x0000000000000000        0x0 contiki-avr-atmega128rfa1.a(random.o)
 .bss           0x0000000000000000        0x0 contiki-avr-atmega128rfa1.a(random.o)
 .text          0x0000000000000000        0x0 contiki-avr-atmega128rfa1.a(rf230bb.o)
 .bss           0x0000000000000000        0x0 contiki-avr-atmega128rfa1.a(rf230bb.o)
 .text.rf230_set_promiscuous_mode
                0x0000000000000000        0x6 contiki-avr-atmega128rfa1.a(rf230bb.o)
 .text.rf230_is_ready_to_send
                0x0000000000000000       0x14 contiki-avr-atmega128rfa1.a(rf230bb.o)
 .text.rf230_setpendingbit
                0x0000000000000000        0xe contiki-avr-atmega128rfa1.a(rf230bb.o)
 .text.rf230_listen_channel
                0x0000000000000000        0xa contiki-avr-atmega128rfa1.a(rf230bb.o)
 .text.rf230_get_raw_rssi
                0x0000000000000000       0x48 contiki-avr-atmega128rfa1.a(rf230bb.o)
 .bss.is_promiscuous
                0x0000000000000000        0x1 contiki-avr-atmega128rfa1.a(rf230bb.o)
 .text          0x0000000000000000        0x0 contiki-avr-atmega128rfa1.a(halbb.o)
 .bss           0x0000000000000000        0x0 contiki-avr-atmega128rfa1.a(halbb.o)
 .text          0x0000000000000000        0x0 contiki-avr-atmega128rfa1.a(autostart.o)
 .bss           0x0000000000000000        0x0 contiki-avr-atmega128rfa1.a(autostart.o)
 .text.autostart_exit
                0x0000000000000000       0x1a contiki-avr-atmega128rfa1.a(autostart.o)
 .text          0x0000000000000000        0x0 contiki-avr-atmega128rfa1.a(energest.o)
 .bss           0x0000000000000000        0x0 contiki-avr-atmega128rfa1.a(energest.o)
 .text.energest_init
                0x0000000000000000       0x2c contiki-avr-atmega128rfa1.a(energest.o)
 .text.energest_type_time
                0x0000000000000000       0x6e contiki-avr-atmega128rfa1.a(energest.o)
 .text.energest_leveldevice_leveltime
                0x0000000000000000        0x8 contiki-avr-atmega128rfa1.a(energest.o)
 .text.energest_type_set
                0x0000000000000000       0x18 contiki-avr-atmega128rfa1.a(energest.o)
 .text.energest_flush
                0x0000000000000000       0x5a contiki-avr-atmega128rfa1.a(energest.o)
 .text          0x0000000000000000        0x0 contiki-avr-atmega128rfa1.a(ctimer.o)
 .bss           0x0000000000000000        0x0 contiki-avr-atmega128rfa1.a(ctimer.o)
 .text.ctimer_restart
                0x0000000000000000       0x48 contiki-avr-atmega128rfa1.a(ctimer.o)
 .text.ctimer_expired
                0x0000000000000000       0x44 contiki-avr-atmega128rfa1.a(ctimer.o)
 .text          0x0000000000000000        0x0 contiki-avr-atmega128rfa1.a(etimer.o)
 .bss           0x0000000000000000        0x0 contiki-avr-atmega128rfa1.a(etimer.o)
 .text.etimer_adjust
                0x0000000000000000       0x12 contiki-avr-atmega128rfa1.a(etimer.o)
 .text.etimer_start_time
                0x0000000000000000        0x8 contiki-avr-atmega128rfa1.a(etimer.o)
 .text          0x0000000000000000        0x0 contiki-avr-atmega128rfa1.a(process.o)
 .bss           0x0000000000000000        0x0 contiki-avr-atmega128rfa1.a(process.o)
 .text.process_exit
                0x0000000000000000        0xc contiki-avr-atmega128rfa1.a(process.o)
 .text.process_nevents
                0x0000000000000000       0x10 contiki-avr-atmega128rfa1.a(process.o)
 .text.process_is_running
                0x0000000000000000       0x14 contiki-avr-atmega128rfa1.a(process.o)
 .text          0x0000000000000000        0x0 contiki-avr-atmega128rfa1.a(rtimer.o)
 .bss           0x0000000000000000        0x0 contiki-avr-atmega128rfa1.a(rtimer.o)
 .text.rtimer_set
                0x0000000000000000       0x36 contiki-avr-atmega128rfa1.a(rtimer.o)
 .text          0x0000000000000000        0x0 contiki-avr-atmega128rfa1.a(timer.o)
 .bss           0x0000000000000000        0x0 contiki-avr-atmega128rfa1.a(timer.o)
 .text.timer_remaining
                0x0000000000000000       0x24 contiki-avr-atmega128rfa1.a(timer.o)
 .text          0x0000000000000000        0x0 contiki-avr-atmega128rfa1.a(list.o)
 .bss           0x0000000000000000        0x0 contiki-avr-atmega128rfa1.a(list.o)
 .text.list_copy
                0x0000000000000000        0xe contiki-avr-atmega128rfa1.a(list.o)
 .text.list_chop
                0x0000000000000000       0x3c contiki-avr-atmega128rfa1.a(list.o)
 .text.list_pop
                0x0000000000000000       0x18 contiki-avr-atmega128rfa1.a(list.o)
 .text.list_insert
                0x0000000000000000       0x1c contiki-avr-atmega128rfa1.a(list.o)
 .text          0x0000000000000000        0x0 contiki-avr-atmega128rfa1.a(print-stats.o)
 .bss           0x0000000000000000        0x0 contiki-avr-atmega128rfa1.a(print-stats.o)
 .text          0x0000000000000000        0x0 contiki-avr-atmega128rfa1.a(uip-ds6.o)
 .bss           0x0000000000000000        0x0 contiki-avr-atmega128rfa1.a(uip-ds6.o)
 .text.uip_ds6_prefix_rm
                0x0000000000000000        0xa contiki-avr-atmega128rfa1.a(uip-ds6.o)
 .text.uip_ds6_prefix_lookup
                0x0000000000000000       0x3a contiki-avr-atmega128rfa1.a(uip-ds6.o)
 .text.uip_ds6_get_global
                0x0000000000000000       0x5a contiki-avr-atmega128rfa1.a(uip-ds6.o)
 .text.uip_ds6_aaddr_add
                0x0000000000000000       0x64 contiki-avr-atmega128rfa1.a(uip-ds6.o)
 .text.uip_ds6_aaddr_rm
                0x0000000000000000        0xa contiki-avr-atmega128rfa1.a(uip-ds6.o)
 .text.uip_ds6_aaddr_lookup
                0x0000000000000000       0x3a contiki-avr-atmega128rfa1.a(uip-ds6.o)
 .bss.locaaddr  0x0000000000000000        0x2 contiki-avr-atmega128rfa1.a(uip-ds6.o)
 .text          0x0000000000000000        0x0 contiki-avr-atmega128rfa1.a(uip-ds6-route.o)
 .bss           0x0000000000000000        0x0 contiki-avr-atmega128rfa1.a(uip-ds6-route.o)
 .text.uip_ds6_notification_add
                0x0000000000000000       0x1c contiki-avr-atmega128rfa1.a(uip-ds6-route.o)
 .text.uip_ds6_notification_rm
                0x0000000000000000        0xa contiki-avr-atmega128rfa1.a(uip-ds6-route.o)
 .text.uip_ds6_route_num_routes
                0x0000000000000000        0xa contiki-avr-atmega128rfa1.a(uip-ds6-route.o)
 .text.uip_ds6_route_rm_by_nexthop
                0x0000000000000000       0x12 contiki-avr-atmega128rfa1.a(uip-ds6-route.o)
 .text          0x0000000000000000        0x0 contiki-avr-atmega128rfa1.a(uip6.o)
 .bss           0x0000000000000000        0x0 contiki-avr-atmega128rfa1.a(uip6.o)
 .text.uip_chksum
                0x0000000000000000       0x14 contiki-avr-atmega128rfa1.a(uip6.o)
 .text.uip_connect
                0x0000000000000000      0x110 contiki-avr-atmega128rfa1.a(uip6.o)
 .text.uip_listen
                0x0000000000000000       0x32 contiki-avr-atmega128rfa1.a(uip6.o)
 .text.uip_send
                0x0000000000000000       0x54 contiki-avr-atmega128rfa1.a(uip6.o)
 .text          0x0000000000000000        0x0 contiki-avr-atmega128rfa1.a(uip-ds6-nbr.o)
 .bss           0x0000000000000000        0x0 contiki-avr-atmega128rfa1.a(uip-ds6-nbr.o)
 .text.uip_ds6_nbr_get_ipaddr
                0x0000000000000000        0x2 contiki-avr-atmega128rfa1.a(uip-ds6-nbr.o)
 .text.uip_ds6_nbr_num
                0x0000000000000000       0x32 contiki-avr-atmega128rfa1.a(uip-ds6-nbr.o)
 .text.uip_ds6_get_least_lifetime_neighbor
                0x0000000000000000       0x82 contiki-avr-atmega128rfa1.a(uip-ds6-nbr.o)
 .text          0x0000000000000000        0x0 contiki-avr-atmega128rfa1.a(uip-nd6.o)
 .bss           0x0000000000000000        0x0 contiki-avr-atmega128rfa1.a(uip-nd6.o)
 .text          0x0000000000000000        0x0 contiki-avr-atmega128rfa1.a(sicslowpan.o)
 .bss           0x0000000000000000        0x0 contiki-avr-atmega128rfa1.a(sicslowpan.o)
 .text.rime_sniffer_add
                0x0000000000000000        0xa contiki-avr-atmega128rfa1.a(sicslowpan.o)
 .text.rime_sniffer_remove
                0x0000000000000000        0xa contiki-avr-atmega128rfa1.a(sicslowpan.o)
 .text.sicslowpan_get_last_rssi
                0x0000000000000000        0xa contiki-avr-atmega128rfa1.a(sicslowpan.o)
 .text          0x0000000000000000        0x0 contiki-avr-atmega128rfa1.a(uip-packetqueue)
 .bss           0x0000000000000000        0x0 contiki-avr-atmega128rfa1.a(uip-packetqueue)
 .text          0x0000000000000000        0x0 contiki-avr-atmega128rfa1.a(uip-udp-packet.)
 .bss           0x0000000000000000        0x0 contiki-avr-atmega128rfa1.a(uip-udp-packet.)
 .text          0x0000000000000000        0x0 contiki-avr-atmega128rfa1.a(tcpip.o)
 .bss           0x0000000000000000        0x0 contiki-avr-atmega128rfa1.a(tcpip.o)
 .text.tcp_unlisten
                0x0000000000000000       0x3e contiki-avr-atmega128rfa1.a(tcpip.o)
 .text.tcp_listen
                0x0000000000000000       0x3a contiki-avr-atmega128rfa1.a(tcpip.o)
 .text.tcp_attach
                0x0000000000000000       0x14 contiki-avr-atmega128rfa1.a(tcpip.o)
 .text.udp_attach
                0x0000000000000000       0x14 contiki-avr-atmega128rfa1.a(tcpip.o)
 .text.udp_broadcast_new
                0x0000000000000000       0x6e contiki-avr-atmega128rfa1.a(tcpip.o)
 .text.icmp6_new
                0x0000000000000000       0x2c contiki-avr-atmega128rfa1.a(tcpip.o)
 .text.tcpip_poll_udp
                0x0000000000000000        0xc contiki-avr-atmega128rfa1.a(tcpip.o)
 .text.tcpip_poll_tcp
                0x0000000000000000        0xc contiki-avr-atmega128rfa1.a(tcpip.o)
 .text.tcp_connect
                0x0000000000000000       0x36 contiki-avr-atmega128rfa1.a(tcpip.o)
 .bss.i.5329    0x0000000000000000        0x1 contiki-avr-atmega128rfa1.a(tcpip.o)
 .bss.i.5321    0x0000000000000000        0x1 contiki-avr-atmega128rfa1.a(tcpip.o)
 .text          0x0000000000000000        0x0 contiki-avr-atmega128rfa1.a(uip-split.o)
 .bss           0x0000000000000000        0x0 contiki-avr-atmega128rfa1.a(uip-split.o)
 .text          0x0000000000000000        0x0 contiki-avr-atmega128rfa1.a(simple-udp.o)
 .bss           0x0000000000000000        0x0 contiki-avr-atmega128rfa1.a(simple-udp.o)
 .text.simple_udp_send
                0x0000000000000000       0x2c contiki-avr-atmega128rfa1.a(simple-udp.o)
 .text.simple_udp_sendto
                0x0000000000000000       0x26 contiki-avr-atmega128rfa1.a(simple-udp.o)
 .text.simple_udp_sendto_port
                0x0000000000000000       0x22 contiki-avr-atmega128rfa1.a(simple-udp.o)
 .text          0x0000000000000000        0x0 contiki-avr-atmega128rfa1.a(uiplib.o)
 .bss           0x0000000000000000        0x0 contiki-avr-atmega128rfa1.a(uiplib.o)
 .text.uiplib_ip4addrconv
                0x0000000000000000       0x70 contiki-avr-atmega128rfa1.a(uiplib.o)
 .text          0x0000000000000000        0x0 contiki-avr-atmega128rfa1.a(uip-debug.o)
 .bss           0x0000000000000000        0x0 contiki-avr-atmega128rfa1.a(uip-debug.o)
 .text.uip_debug_lladdr_print
                0x0000000000000000       0x7c contiki-avr-atmega128rfa1.a(uip-debug.o)
 .progmem.data.__c.3365
                0x0000000000000000        0x5 contiki-avr-atmega128rfa1.a(uip-debug.o)
 .progmem.data.__c.3363
                0x0000000000000000        0x2 contiki-avr-atmega128rfa1.a(uip-debug.o)
 .progmem.data.__c.3361
                0x0000000000000000        0xf contiki-avr-atmega128rfa1.a(uip-debug.o)
 .text          0x0000000000000000        0x0 contiki-avr-atmega128rfa1.a(rpl-ext-header.)
 .bss           0x0000000000000000        0x0 contiki-avr-atmega128rfa1.a(rpl-ext-header.)
 .text.rpl_remove_header
                0x0000000000000000       0x5e contiki-avr-atmega128rfa1.a(rpl-ext-header.)
 .text          0x0000000000000000        0x0 contiki-avr-atmega128rfa1.a(rpl.o)
 .bss           0x0000000000000000        0x0 contiki-avr-atmega128rfa1.a(rpl.o)
 .text.rpl_set_mode
                0x0000000000000000       0x4e contiki-avr-atmega128rfa1.a(rpl.o)
 .text          0x0000000000000000        0x0 contiki-avr-atmega128rfa1.a(rpl-mrhof.o)
 .bss           0x0000000000000000        0x0 contiki-avr-atmega128rfa1.a(rpl-mrhof.o)
 .text          0x0000000000000000        0x0 contiki-avr-atmega128rfa1.a(rpl-dag.o)
 .bss           0x0000000000000000        0x0 contiki-avr-atmega128rfa1.a(rpl-dag.o)
 .rodata.str1.1
                0x0000000000000000       0x6a contiki-avr-atmega128rfa1.a(rpl-dag.o)
 .text.rpl_print_neighbor_list
                0x0000000000000000      0x1c8 contiki-avr-atmega128rfa1.a(rpl-dag.o)
 .text.rpl_get_parent_rank
                0x0000000000000000       0x20 contiki-avr-atmega128rfa1.a(rpl-dag.o)
 .text.rpl_get_parent_link_metric
                0x0000000000000000       0x20 contiki-avr-atmega128rfa1.a(rpl-dag.o)
 .text.rpl_set_default_instance
                0x0000000000000000        0xa contiki-avr-atmega128rfa1.a(rpl-dag.o)
 .text.rpl_get_default_instance
                0x0000000000000000        0xa contiki-avr-atmega128rfa1.a(rpl-dag.o)
 .text.rpl_free_dag
                0x0000000000000000       0x34 contiki-avr-atmega128rfa1.a(rpl-dag.o)
 .text.rpl_free_instance
                0x0000000000000000       0x92 contiki-avr-atmega128rfa1.a(rpl-dag.o)
 .text.rpl_set_root
                0x0000000000000000      0x17c contiki-avr-atmega128rfa1.a(rpl-dag.o)
 .text          0x0000000000000000        0x0 contiki-avr-atmega128rfa1.a(nullmac.o)
 .bss           0x0000000000000000        0x0 contiki-avr-atmega128rfa1.a(nullmac.o)
 .text          0x0000000000000000        0x0 contiki-avr-atmega128rfa1.a(framer-802154.o)
 .bss           0x0000000000000000        0x0 contiki-avr-atmega128rfa1.a(framer-802154.o)
 .text          0x0000000000000000        0x0 contiki-avr-atmega128rfa1.a(frame802154.o)
 .bss           0x0000000000000000        0x0 contiki-avr-atmega128rfa1.a(frame802154.o)
 .text          0x0000000000000000        0x0 contiki-avr-atmega128rfa1.a(framer.o)
 .bss           0x0000000000000000        0x0 contiki-avr-atmega128rfa1.a(framer.o)
 .text          0x0000000000000000        0x0 contiki-avr-atmega128rfa1.a(queuebuf.o)
 .bss           0x0000000000000000        0x0 contiki-avr-atmega128rfa1.a(queuebuf.o)
 .text.queuebuf_update_attr_from_packetbuf
                0x0000000000000000       0x14 contiki-avr-atmega128rfa1.a(queuebuf.o)
 .text.queuebuf_update_from_packetbuf
                0x0000000000000000       0x2e contiki-avr-atmega128rfa1.a(queuebuf.o)
 .text.queuebuf_dataptr
                0x0000000000000000       0x24 contiki-avr-atmega128rfa1.a(queuebuf.o)
 .text.queuebuf_datalen
                0x0000000000000000       0x10 contiki-avr-atmega128rfa1.a(queuebuf.o)
 .text.queuebuf_addr
                0x0000000000000000       0x1c contiki-avr-atmega128rfa1.a(queuebuf.o)
 .text.queuebuf_attr
                0x0000000000000000       0x1c contiki-avr-atmega128rfa1.a(queuebuf.o)
 .text.queuebuf_debug_print
                0x0000000000000000        0x2 contiki-avr-atmega128rfa1.a(queuebuf.o)
 .text          0x0000000000000000        0x0 contiki-avr-atmega128rfa1.a(nbr-table.o)
 .bss           0x0000000000000000        0x0 contiki-avr-atmega128rfa1.a(nbr-table.o)
 .text          0x0000000000000000        0x0 contiki-avr-atmega128rfa1.a(packetbuf.o)
 .bss           0x0000000000000000        0x0 contiki-avr-atmega128rfa1.a(packetbuf.o)
 .text.packetbuf_clear_hdr
                0x0000000000000000        0x8 contiki-avr-atmega128rfa1.a(packetbuf.o)
 .text.packetbuf_copyto_hdr
                0x0000000000000000       0x24 contiki-avr-atmega128rfa1.a(packetbuf.o)
 .text.packetbuf_hdr_remove
                0x0000000000000000        0xc contiki-avr-atmega128rfa1.a(packetbuf.o)
 .text          0x0000000000000000        0x0 contiki-avr-atmega128rfa1.a(linkaddr.o)
 .bss           0x0000000000000000        0x0 contiki-avr-atmega128rfa1.a(linkaddr.o)
 .text          0x0000000000000000        0x0 contiki-avr-atmega128rfa1.a(sicslowmac.o)
 .bss           0x0000000000000000        0x0 contiki-avr-atmega128rfa1.a(sicslowmac.o)
 .text          0x0000000000000000        0x0 contiki-avr-atmega128rfa1.a(rtimer-arch.o)
 .bss           0x0000000000000000        0x0 contiki-avr-atmega128rfa1.a(rtimer-arch.o)
 .text.rtimer_arch_sleep
                0x0000000000000000      0x17a contiki-avr-atmega128rfa1.a(rtimer-arch.o)
 .text          0x0000000000000000        0x0 contiki-avr-atmega128rfa1.a(stimer.o)
 .bss           0x0000000000000000        0x0 contiki-avr-atmega128rfa1.a(stimer.o)
 .text.stimer_reset
                0x0000000000000000       0x2c contiki-avr-atmega128rfa1.a(stimer.o)
 .text.stimer_restart
                0x0000000000000000       0x18 contiki-avr-atmega128rfa1.a(stimer.o)
 .text.stimer_remaining
                0x0000000000000000       0x40 contiki-avr-atmega128rfa1.a(stimer.o)
 .text.stimer_elapsed
                0x0000000000000000       0x28 contiki-avr-atmega128rfa1.a(stimer.o)
 .text          0x0000000000000000        0x0 contiki-avr-atmega128rfa1.a(memb.o)
 .bss           0x0000000000000000        0x0 contiki-avr-atmega128rfa1.a(memb.o)
 .text          0x0000000000000000        0x0 contiki-avr-atmega128rfa1.a(nullsec.o)
 .bss           0x0000000000000000        0x0 contiki-avr-atmega128rfa1.a(nullsec.o)
 .text          0x0000000000000000        0x0 contiki-avr-atmega128rfa1.a(uip-icmp6.o)
 .bss           0x0000000000000000        0x0 contiki-avr-atmega128rfa1.a(uip-icmp6.o)
 .text.uip_icmp6_echo_reply_callback_add
                0x0000000000000000       0x1c contiki-avr-atmega128rfa1.a(uip-icmp6.o)
 .text.uip_icmp6_echo_reply_callback_rm
                0x0000000000000000        0xa contiki-avr-atmega128rfa1.a(uip-icmp6.o)
 .text          0x0000000000000000        0x0 contiki-avr-atmega128rfa1.a(rpl-icmp6.o)
 .bss           0x0000000000000000        0x0 contiki-avr-atmega128rfa1.a(rpl-icmp6.o)
 .text          0x0000000000000000        0x0 contiki-avr-atmega128rfa1.a(rpl-timers.o)
 .bss           0x0000000000000000        0x0 contiki-avr-atmega128rfa1.a(rpl-timers.o)
 .text.rpl_schedule_dao_immediately
                0x0000000000000000        0x8 contiki-avr-atmega128rfa1.a(rpl-timers.o)
 .text.rpl_cancel_dao
                0x0000000000000000       0x1c contiki-avr-atmega128rfa1.a(rpl-timers.o)
 .text          0x0000000000000000        0x0 /usr/lib/gcc/avr/4.8.1/avr51/libgcc.a(_udivmodhi4.o)
 .bss           0x0000000000000000        0x0 /usr/lib/gcc/avr/4.8.1/avr51/libgcc.a(_udivmodhi4.o)
 .text.libgcc.mul
                0x0000000000000000        0x0 /usr/lib/gcc/avr/4.8.1/avr51/libgcc.a(_udivmodhi4.o)
 .text.libgcc   0x0000000000000000        0x0 /usr/lib/gcc/avr/4.8.1/avr51/libgcc.a(_udivmodhi4.o)
 .text.libgcc.prologue
                0x0000000000000000        0x0 /usr/lib/gcc/avr/4.8.1/avr51/libgcc.a(_udivmodhi4.o)
 .text.libgcc.builtins
                0x0000000000000000        0x0 /usr/lib/gcc/avr/4.8.1/avr51/libgcc.a(_udivmodhi4.o)
 .text.libgcc.fmul
                0x0000000000000000        0x0 /usr/lib/gcc/avr/4.8.1/avr51/libgcc.a(_udivmodhi4.o)
 .text.libgcc.fixed
                0x0000000000000000        0x0 /usr/lib/gcc/avr/4.8.1/avr51/libgcc.a(_udivmodhi4.o)
 .text          0x0000000000000000        0x0 /usr/lib/gcc/avr/4.8.1/avr51/libgcc.a(_divmodhi4.o)
 .bss           0x0000000000000000        0x0 /usr/lib/gcc/avr/4.8.1/avr51/libgcc.a(_divmodhi4.o)
 .text.libgcc.mul
                0x0000000000000000        0x0 /usr/lib/gcc/avr/4.8.1/avr51/libgcc.a(_divmodhi4.o)
 .text.libgcc   0x0000000000000000        0x0 /usr/lib/gcc/avr/4.8.1/avr51/libgcc.a(_divmodhi4.o)
 .text.libgcc.prologue
                0x0000000000000000        0x0 /usr/lib/gcc/avr/4.8.1/avr51/libgcc.a(_divmodhi4.o)
 .text.libgcc.builtins
                0x0000000000000000        0x0 /usr/lib/gcc/avr/4.8.1/avr51/libgcc.a(_divmodhi4.o)
 .text.libgcc.fmul
                0x0000000000000000        0x0 /usr/lib/gcc/avr/4.8.1/avr51/libgcc.a(_divmodhi4.o)
 .text.libgcc.fixed
                0x0000000000000000        0x0 /usr/lib/gcc/avr/4.8.1/avr51/libgcc.a(_divmodhi4.o)
 .text          0x0000000000000000        0x0 /usr/lib/gcc/avr/4.8.1/avr51/libgcc.a(_udivmodsi4.o)
 .bss           0x0000000000000000        0x0 /usr/lib/gcc/avr/4.8.1/avr51/libgcc.a(_udivmodsi4.o)
 .text.libgcc.mul
                0x0000000000000000        0x0 /usr/lib/gcc/avr/4.8.1/avr51/libgcc.a(_udivmodsi4.o)
 .text.libgcc   0x0000000000000000        0x0 /usr/lib/gcc/avr/4.8.1/avr51/libgcc.a(_udivmodsi4.o)
 .text.libgcc.prologue
                0x0000000000000000        0x0 /usr/lib/gcc/avr/4.8.1/avr51/libgcc.a(_udivmodsi4.o)
 .text.libgcc.builtins
                0x0000000000000000        0x0 /usr/lib/gcc/avr/4.8.1/avr51/libgcc.a(_udivmodsi4.o)
 .text.libgcc.fmul
                0x0000000000000000        0x0 /usr/lib/gcc/avr/4.8.1/avr51/libgcc.a(_udivmodsi4.o)
 .text.libgcc.fixed
                0x0000000000000000        0x0 /usr/lib/gcc/avr/4.8.1/avr51/libgcc.a(_udivmodsi4.o)
 .text          0x0000000000000000        0x0 /usr/lib/gcc/avr/4.8.1/avr51/libgcc.a(_exit.o)
 .bss           0x0000000000000000        0x0 /usr/lib/gcc/avr/4.8.1/avr51/libgcc.a(_exit.o)
 .text.libgcc.mul
                0x0000000000000000        0x0 /usr/lib/gcc/avr/4.8.1/avr51/libgcc.a(_exit.o)
 .text.libgcc.div
                0x0000000000000000        0x0 /usr/lib/gcc/avr/4.8.1/avr51/libgcc.a(_exit.o)
 .text.libgcc   0x0000000000000000        0x0 /usr/lib/gcc/avr/4.8.1/avr51/libgcc.a(_exit.o)
 .text.libgcc.prologue
                0x0000000000000000        0x0 /usr/lib/gcc/avr/4.8.1/avr51/libgcc.a(_exit.o)
 .text.libgcc.builtins
                0x0000000000000000        0x0 /usr/lib/gcc/avr/4.8.1/avr51/libgcc.a(_exit.o)
 .text.libgcc.fmul
                0x0000000000000000        0x0 /usr/lib/gcc/avr/4.8.1/avr51/libgcc.a(_exit.o)
 .text.libgcc.fixed
                0x0000000000000000        0x0 /usr/lib/gcc/avr/4.8.1/avr51/libgcc.a(_exit.o)
 .text          0x0000000000000000        0x0 /usr/lib/gcc/avr/4.8.1/avr51/libgcc.a(_tablejump.o)
 .bss           0x0000000000000000        0x0 /usr/lib/gcc/avr/4.8.1/avr51/libgcc.a(_tablejump.o)
 .text.libgcc.mul
                0x0000000000000000        0x0 /usr/lib/gcc/avr/4.8.1/avr51/libgcc.a(_tablejump.o)
 .text.libgcc.div
                0x0000000000000000        0x0 /usr/lib/gcc/avr/4.8.1/avr51/libgcc.a(_tablejump.o)
 .text.libgcc.prologue
                0x0000000000000000        0x0 /usr/lib/gcc/avr/4.8.1/avr51/libgcc.a(_tablejump.o)
 .text.libgcc.builtins
                0x0000000000000000        0x0 /usr/lib/gcc/avr/4.8.1/avr51/libgcc.a(_tablejump.o)
 .text.libgcc.fmul
                0x0000000000000000        0x0 /usr/lib/gcc/avr/4.8.1/avr51/libgcc.a(_tablejump.o)
 .text.libgcc.fixed
                0x0000000000000000        0x0 /usr/lib/gcc/avr/4.8.1/avr51/libgcc.a(_tablejump.o)
 .text          0x0000000000000000        0x0 /usr/lib/gcc/avr/4.8.1/avr51/libgcc.a(_copy_data.o)
 .bss           0x0000000000000000        0x0 /usr/lib/gcc/avr/4.8.1/avr51/libgcc.a(_copy_data.o)
 .text.libgcc.mul
                0x0000000000000000        0x0 /usr/lib/gcc/avr/4.8.1/avr51/libgcc.a(_copy_data.o)
 .text.libgcc.div
                0x0000000000000000        0x0 /usr/lib/gcc/avr/4.8.1/avr51/libgcc.a(_copy_data.o)
 .text.libgcc   0x0000000000000000        0x0 /usr/lib/gcc/avr/4.8.1/avr51/libgcc.a(_copy_data.o)
 .text.libgcc.prologue
                0x0000000000000000        0x0 /usr/lib/gcc/avr/4.8.1/avr51/libgcc.a(_copy_data.o)
 .text.libgcc.builtins
                0x0000000000000000        0x0 /usr/lib/gcc/avr/4.8.1/avr51/libgcc.a(_copy_data.o)
 .text.libgcc.fmul
                0x0000000000000000        0x0 /usr/lib/gcc/avr/4.8.1/avr51/libgcc.a(_copy_data.o)
 .text.libgcc.fixed
                0x0000000000000000        0x0 /usr/lib/gcc/avr/4.8.1/avr51/libgcc.a(_copy_data.o)
 .text          0x0000000000000000        0x0 /usr/lib/gcc/avr/4.8.1/avr51/libgcc.a(_clear_bss.o)
 .bss           0x0000000000000000        0x0 /usr/lib/gcc/avr/4.8.1/avr51/libgcc.a(_clear_bss.o)
 .text.libgcc.mul
                0x0000000000000000        0x0 /usr/lib/gcc/avr/4.8.1/avr51/libgcc.a(_clear_bss.o)
 .text.libgcc.div
                0x0000000000000000        0x0 /usr/lib/gcc/avr/4.8.1/avr51/libgcc.a(_clear_bss.o)
 .text.libgcc   0x0000000000000000        0x0 /usr/lib/gcc/avr/4.8.1/avr51/libgcc.a(_clear_bss.o)
 .text.libgcc.prologue
                0x0000000000000000        0x0 /usr/lib/gcc/avr/4.8.1/avr51/libgcc.a(_clear_bss.o)
 .text.libgcc.builtins
                0x0000000000000000        0x0 /usr/lib/gcc/avr/4.8.1/avr51/libgcc.a(_clear_bss.o)
 .text.libgcc.fmul
                0x0000000000000000        0x0 /usr/lib/gcc/avr/4.8.1/avr51/libgcc.a(_clear_bss.o)
 .text.libgcc.fixed
                0x0000000000000000        0x0 /usr/lib/gcc/avr/4.8.1/avr51/libgcc.a(_clear_bss.o)
 .text          0x0000000000000000        0x0 /usr/lib/gcc/avr/4.8.1/avr51/libgcc.a(_bswapsi2.o)
 .bss           0x0000000000000000        0x0 /usr/lib/gcc/avr/4.8.1/avr51/libgcc.a(_bswapsi2.o)
 .text.libgcc.mul
                0x0000000000000000        0x0 /usr/lib/gcc/avr/4.8.1/avr51/libgcc.a(_bswapsi2.o)
 .text.libgcc.div
                0x0000000000000000        0x0 /usr/lib/gcc/avr/4.8.1/avr51/libgcc.a(_bswapsi2.o)
 .text.libgcc   0x0000000000000000        0x0 /usr/lib/gcc/avr/4.8.1/avr51/libgcc.a(_bswapsi2.o)
 .text.libgcc.prologue
                0x0000000000000000        0x0 /usr/lib/gcc/avr/4.8.1/avr51/libgcc.a(_bswapsi2.o)
 .text.libgcc.fmul
                0x0000000000000000        0x0 /usr/lib/gcc/avr/4.8.1/avr51/libgcc.a(_bswapsi2.o)
 .text.libgcc.fixed
                0x0000000000000000        0x0 /usr/lib/gcc/avr/4.8.1/avr51/libgcc.a(_bswapsi2.o)
 .text          0x0000000000000000        0x0 /usr/lib/gcc/avr/4.8.1/avr51/libgcc.a(_umulhisi3.o)
 .bss           0x0000000000000000        0x0 /usr/lib/gcc/avr/4.8.1/avr51/libgcc.a(_umulhisi3.o)
 .text.libgcc.div
                0x0000000000000000        0x0 /usr/lib/gcc/avr/4.8.1/avr51/libgcc.a(_umulhisi3.o)
 .text.libgcc   0x0000000000000000        0x0 /usr/lib/gcc/avr/4.8.1/avr51/libgcc.a(_umulhisi3.o)
 .text.libgcc.prologue
                0x0000000000000000        0x0 /usr/lib/gcc/avr/4.8.1/avr51/libgcc.a(_umulhisi3.o)
 .text.libgcc.builtins
                0x0000000000000000        0x0 /usr/lib/gcc/avr/4.8.1/avr51/libgcc.a(_umulhisi3.o)
 .text.libgcc.fmul
                0x0000000000000000        0x0 /usr/lib/gcc/avr/4.8.1/avr51/libgcc.a(_umulhisi3.o)
 .text.libgcc.fixed
                0x0000000000000000        0x0 /usr/lib/gcc/avr/4.8.1/avr51/libgcc.a(_umulhisi3.o)
 .text          0x0000000000000000        0x0 /usr/lib/gcc/avr/4.8.1/../../../avr/lib/avr51/libc.a(malloc.o)
 .bss           0x0000000000000000        0x0 /usr/lib/gcc/avr/4.8.1/../../../avr/lib/avr51/libc.a(malloc.o)
 .text          0x0000000000000000        0x0 /usr/lib/gcc/avr/4.8.1/../../../avr/lib/avr51/libc.a(rand.o)
 .bss           0x0000000000000000        0x0 /usr/lib/gcc/avr/4.8.1/../../../avr/lib/avr51/libc.a(rand.o)
 .text          0x0000000000000000        0x0 /usr/lib/gcc/avr/4.8.1/../../../avr/lib/avr51/libc.a(abort.o)
 .bss           0x0000000000000000        0x0 /usr/lib/gcc/avr/4.8.1/../../../avr/lib/avr51/libc.a(abort.o)
 .text.avr-libc
                0x0000000000000000        0xa /usr/lib/gcc/avr/4.8.1/../../../avr/lib/avr51/libc.a(abort.o)
 .text          0x0000000000000000        0x0 /usr/lib/gcc/avr/4.8.1/../../../avr/lib/avr51/libc.a(memcmp.o)
 .bss           0x0000000000000000        0x0 /usr/lib/gcc/avr/4.8.1/../../../avr/lib/avr51/libc.a(memcmp.o)
 .text          0x0000000000000000        0x0 /usr/lib/gcc/avr/4.8.1/../../../avr/lib/avr51/libc.a(memcpy.o)
 .bss           0x0000000000000000        0x0 /usr/lib/gcc/avr/4.8.1/../../../avr/lib/avr51/libc.a(memcpy.o)
 .text          0x0000000000000000        0x0 /usr/lib/gcc/avr/4.8.1/../../../avr/lib/avr51/libc.a(memmove.o)
 .bss           0x0000000000000000        0x0 /usr/lib/gcc/avr/4.8.1/../../../avr/lib/avr51/libc.a(memmove.o)
 .text          0x0000000000000000        0x0 /usr/lib/gcc/avr/4.8.1/../../../avr/lib/avr51/libc.a(memset.o)
 .bss           0x0000000000000000        0x0 /usr/lib/gcc/avr/4.8.1/../../../avr/lib/avr51/libc.a(memset.o)
 .text          0x0000000000000000        0x0 /usr/lib/gcc/avr/4.8.1/../../../avr/lib/avr51/libc.a(fprintf.o)
 .bss           0x0000000000000000        0x0 /usr/lib/gcc/avr/4.8.1/../../../avr/lib/avr51/libc.a(fprintf.o)
 .text          0x0000000000000000        0x0 /usr/lib/gcc/avr/4.8.1/../../../avr/lib/avr51/libc.a(iob.o)
 .bss           0x0000000000000000        0x0 /usr/lib/gcc/avr/4.8.1/../../../avr/lib/avr51/libc.a(iob.o)
 .text          0x0000000000000000        0x0 /usr/lib/gcc/avr/4.8.1/../../../avr/lib/avr51/libc.a(printf.o)
 .bss           0x0000000000000000        0x0 /usr/lib/gcc/avr/4.8.1/../../../avr/lib/avr51/libc.a(printf.o)
 .text          0x0000000000000000        0x0 /usr/lib/gcc/avr/4.8.1/../../../avr/lib/avr51/libc.a(printf_p.o)
 .bss           0x0000000000000000        0x0 /usr/lib/gcc/avr/4.8.1/../../../avr/lib/avr51/libc.a(printf_p.o)
 .text          0x0000000000000000        0x0 /usr/lib/gcc/avr/4.8.1/../../../avr/lib/avr51/libc.a(puts.o)
 .bss           0x0000000000000000        0x0 /usr/lib/gcc/avr/4.8.1/../../../avr/lib/avr51/libc.a(puts.o)
 .text          0x0000000000000000        0x0 /usr/lib/gcc/avr/4.8.1/../../../avr/lib/avr51/libc.a(sprintf.o)
 .bss           0x0000000000000000        0x0 /usr/lib/gcc/avr/4.8.1/../../../avr/lib/avr51/libc.a(sprintf.o)
 .text          0x0000000000000000        0x0 /usr/lib/gcc/avr/4.8.1/../../../avr/lib/avr51/libc.a(vprintf.o)
 .bss           0x0000000000000000        0x0 /usr/lib/gcc/avr/4.8.1/../../../avr/lib/avr51/libc.a(vprintf.o)
 .text          0x0000000000000000        0x0 /usr/lib/gcc/avr/4.8.1/../../../avr/lib/avr51/libc.a(vfprintf_std.o)
 .bss           0x0000000000000000        0x0 /usr/lib/gcc/avr/4.8.1/../../../avr/lib/avr51/libc.a(vfprintf_std.o)
 .text          0x0000000000000000        0x0 /usr/lib/gcc/avr/4.8.1/../../../avr/lib/avr51/libc.a(eerd_block_atmega128rfa1.o)
 .bss           0x0000000000000000        0x0 /usr/lib/gcc/avr/4.8.1/../../../avr/lib/avr51/libc.a(eerd_block_atmega128rfa1.o)
 .text          0x0000000000000000        0x0 /usr/lib/gcc/avr/4.8.1/../../../avr/lib/avr51/libc.a(eerd_byte_atmega128rfa1.o)
 .bss           0x0000000000000000        0x0 /usr/lib/gcc/avr/4.8.1/../../../avr/lib/avr51/libc.a(eerd_byte_atmega128rfa1.o)
 .text          0x0000000000000000        0x0 /usr/lib/gcc/avr/4.8.1/../../../avr/lib/avr51/libc.a(eerd_word_atmega128rfa1.o)
 .bss           0x0000000000000000        0x0 /usr/lib/gcc/avr/4.8.1/../../../avr/lib/avr51/libc.a(eerd_word_atmega128rfa1.o)
 .text          0x0000000000000000        0x0 /usr/lib/gcc/avr/4.8.1/../../../avr/lib/avr51/libc.a(eewr_block_atmega128rfa1.o)
 .bss           0x0000000000000000        0x0 /usr/lib/gcc/avr/4.8.1/../../../avr/lib/avr51/libc.a(eewr_block_atmega128rfa1.o)
 .text          0x0000000000000000        0x0 /usr/lib/gcc/avr/4.8.1/../../../avr/lib/avr51/libc.a(eewr_byte_atmega128rfa1.o)
 .bss           0x0000000000000000        0x0 /usr/lib/gcc/avr/4.8.1/../../../avr/lib/avr51/libc.a(eewr_byte_atmega128rfa1.o)
 .text          0x0000000000000000        0x0 /usr/lib/gcc/avr/4.8.1/../../../avr/lib/avr51/libc.a(eewr_word_atmega128rfa1.o)
 .bss           0x0000000000000000        0x0 /usr/lib/gcc/avr/4.8.1/../../../avr/lib/avr51/libc.a(eewr_word_atmega128rfa1.o)
 .text          0x0000000000000000        0x0 /usr/lib/gcc/avr/4.8.1/../../../avr/lib/avr51/libc.a(strnlen_P.o)
 .bss           0x0000000000000000        0x0 /usr/lib/gcc/avr/4.8.1/../../../avr/lib/avr51/libc.a(strnlen_P.o)
 .text          0x0000000000000000        0x0 /usr/lib/gcc/avr/4.8.1/../../../avr/lib/avr51/libc.a(strnlen.o)
 .bss           0x0000000000000000        0x0 /usr/lib/gcc/avr/4.8.1/../../../avr/lib/avr51/libc.a(strnlen.o)
 .text          0x0000000000000000        0x0 /usr/lib/gcc/avr/4.8.1/../../../avr/lib/avr51/libc.a(fputc.o)
 .bss           0x0000000000000000        0x0 /usr/lib/gcc/avr/4.8.1/../../../avr/lib/avr51/libc.a(fputc.o)
 .text          0x0000000000000000        0x0 /usr/lib/gcc/avr/4.8.1/../../../avr/lib/avr51/libc.a(ultoa_invert.o)
 .bss           0x0000000000000000        0x0 /usr/lib/gcc/avr/4.8.1/../../../avr/lib/avr51/libc.a(ultoa_invert.o)
 .text          0x0000000000000000        0x0 /usr/lib/gcc/avr/4.8.1/avr51/libgcc.a(_divmodsi4.o)
 .bss           0x0000000000000000        0x0 /usr/lib/gcc/avr/4.8.1/avr51/libgcc.a(_divmodsi4.o)
 .text.libgcc.mul
                0x0000000000000000        0x0 /usr/lib/gcc/avr/4.8.1/avr51/libgcc.a(_divmodsi4.o)
 .text.libgcc   0x0000000000000000        0x0 /usr/lib/gcc/avr/4.8.1/avr51/libgcc.a(_divmodsi4.o)
 .text.libgcc.prologue
                0x0000000000000000        0x0 /usr/lib/gcc/avr/4.8.1/avr51/libgcc.a(_divmodsi4.o)
 .text.libgcc.builtins
                0x0000000000000000        0x0 /usr/lib/gcc/avr/4.8.1/avr51/libgcc.a(_divmodsi4.o)
 .text.libgcc.fmul
                0x0000000000000000        0x0 /usr/lib/gcc/avr/4.8.1/avr51/libgcc.a(_divmodsi4.o)
 .text.libgcc.fixed
                0x0000000000000000        0x0 /usr/lib/gcc/avr/4.8.1/avr51/libgcc.a(_divmodsi4.o)
 .text          0x0000000000000000        0x0 /usr/lib/gcc/avr/4.8.1/avr51/libgcc.a(_negsi2.o)
 .bss           0x0000000000000000        0x0 /usr/lib/gcc/avr/4.8.1/avr51/libgcc.a(_negsi2.o)
 .text.libgcc.mul
                0x0000000000000000        0x0 /usr/lib/gcc/avr/4.8.1/avr51/libgcc.a(_negsi2.o)
 .text.libgcc   0x0000000000000000        0x0 /usr/lib/gcc/avr/4.8.1/avr51/libgcc.a(_negsi2.o)
 .text.libgcc.prologue
                0x0000000000000000        0x0 /usr/lib/gcc/avr/4.8.1/avr51/libgcc.a(_negsi2.o)
 .text.libgcc.builtins
                0x0000000000000000        0x0 /usr/lib/gcc/avr/4.8.1/avr51/libgcc.a(_negsi2.o)
 .text.libgcc.fmul
                0x0000000000000000        0x0 /usr/lib/gcc/avr/4.8.1/avr51/libgcc.a(_negsi2.o)
 .text.libgcc.fixed
                0x0000000000000000        0x0 /usr/lib/gcc/avr/4.8.1/avr51/libgcc.a(_negsi2.o)
 .text          0x0000000000000000        0x0 /usr/lib/gcc/avr/4.8.1/avr51/libgcc.a(_muluhisi3.o)
 .bss           0x0000000000000000        0x0 /usr/lib/gcc/avr/4.8.1/avr51/libgcc.a(_muluhisi3.o)
 .text.libgcc.div
                0x0000000000000000        0x0 /usr/lib/gcc/avr/4.8.1/avr51/libgcc.a(_muluhisi3.o)
 .text.libgcc   0x0000000000000000        0x0 /usr/lib/gcc/avr/4.8.1/avr51/libgcc.a(_muluhisi3.o)
 .text.libgcc.prologue
                0x0000000000000000        0x0 /usr/lib/gcc/avr/4.8.1/avr51/libgcc.a(_muluhisi3.o)
 .text.libgcc.builtins
                0x0000000000000000        0x0 /usr/lib/gcc/avr/4.8.1/avr51/libgcc.a(_muluhisi3.o)
 .text.libgcc.fmul
                0x0000000000000000        0x0 /usr/lib/gcc/avr/4.8.1/avr51/libgcc.a(_muluhisi3.o)
 .text.libgcc.fixed
                0x0000000000000000        0x0 /usr/lib/gcc/avr/4.8.1/avr51/libgcc.a(_muluhisi3.o)
 .text          0x0000000000000000        0x0 /usr/lib/gcc/avr/4.8.1/avr51/libgcc.a(_mulshisi3.o)
 .bss           0x0000000000000000        0x0 /usr/lib/gcc/avr/4.8.1/avr51/libgcc.a(_mulshisi3.o)
 .text.libgcc.div
                0x0000000000000000        0x0 /usr/lib/gcc/avr/4.8.1/avr51/libgcc.a(_mulshisi3.o)
 .text.libgcc   0x0000000000000000        0x0 /usr/lib/gcc/avr/4.8.1/avr51/libgcc.a(_mulshisi3.o)
 .text.libgcc.prologue
                0x0000000000000000        0x0 /usr/lib/gcc/avr/4.8.1/avr51/libgcc.a(_mulshisi3.o)
 .text.libgcc.builtins
                0x0000000000000000        0x0 /usr/lib/gcc/avr/4.8.1/avr51/libgcc.a(_mulshisi3.o)
 .text.libgcc.fmul
                0x0000000000000000        0x0 /usr/lib/gcc/avr/4.8.1/avr51/libgcc.a(_mulshisi3.o)
 .text.libgcc.fixed
                0x0000000000000000        0x0 /usr/lib/gcc/avr/4.8.1/avr51/libgcc.a(_mulshisi3.o)

Memory Configuration

Name             Origin             Length             Attributes
text             0x0000000000000000 0x0000000000020000 xr
data             0x0000000000800100 0x000000000000ff00 rw !x
eeprom           0x0000000000810000 0x0000000000010000 rw !x
fuse             0x0000000000820000 0x0000000000000400 rw !x
lock             0x0000000000830000 0x0000000000000400 rw !x
signature        0x0000000000840000 0x0000000000000400 rw !x
user_signatures  0x0000000000850000 0x0000000000000400 rw !x
*default*        0x0000000000000000 0xffffffffffffffff

Linker script and memory map

Address of section .data set to 0x800200
LOAD /usr/lib/gcc/avr/4.8.1/../../../avr/lib/avr51/crtm128rfa1.o
Address of section .bootloader set to 0x1f800
LOAD sdds.co
LOAD objs-128rfa1/sdds-DataSource.o
LOAD objs-128rfa1/sdds-BuiltinTopic.o
LOAD objs-128rfa1/sdds-sDDS.o
LOAD objs-128rfa1/sdds-DataSink.o
LOAD objs-128rfa1/sdds-Marshalling.o
LOAD objs-128rfa1/sdds-NetBuffRef.o
LOAD objs-128rfa1/sdds-TopicDB.o
LOAD objs-128rfa1/sdds-Discovery.o
LOAD objs-128rfa1/sdds-Msg.o
LOAD objs-128rfa1/sdds-Locator.o
LOAD objs-128rfa1/sdds-Management.o
LOAD objs-128rfa1/sdds-Debug.o
LOAD objs-128rfa1/sdds-SNPS.o
LOAD objs-128rfa1/sdds-LocatorDB.o
LOAD objs-128rfa1/sdds-Topic.o
LOAD objs-128rfa1/sdds-contiki-NodeConfig.o
LOAD objs-128rfa1/sdds-contiki-UDP.o
LOAD objs-128rfa1/sdds-contiki-Log.o
LOAD objs-128rfa1/sdds-contiki-Memory.o
LOAD objs-128rfa1/sdds-contiki-Task.o
LOAD objs-128rfa1/atmega_sdds_impl.o
LOAD objs-128rfa1/alpha-ds.o
LOAD objs-128rfa1/beta-ds.o
LOAD contiki-avr-atmega128rfa1.a
START GROUP
LOAD /usr/lib/gcc/avr/4.8.1/avr51/libgcc.a
LOAD /usr/lib/gcc/avr/4.8.1/../../../avr/lib/avr51/libm.a
LOAD /usr/lib/gcc/avr/4.8.1/../../../avr/lib/avr51/libc.a
END GROUP

.hash
 *(.hash)

.dynsym
 *(.dynsym)

.dynstr
 *(.dynstr)

.gnu.version
 *(.gnu.version)

.gnu.version_d
 *(.gnu.version_d)

.gnu.version_r
 *(.gnu.version_r)

.rel.init
 *(.rel.init)

.rela.init
 *(.rela.init)

.rel.text
 *(.rel.text)
 *(.rel.text.*)
 *(.rel.gnu.linkonce.t*)

.rela.text
 *(.rela.text)
 *(.rela.text.*)
 *(.rela.gnu.linkonce.t*)

.rel.fini
 *(.rel.fini)

.rela.fini
 *(.rela.fini)

.rel.rodata
 *(.rel.rodata)
 *(.rel.rodata.*)
 *(.rel.gnu.linkonce.r*)

.rela.rodata
 *(.rela.rodata)
 *(.rela.rodata.*)
 *(.rela.gnu.linkonce.r*)

.rel.data
 *(.rel.data)
 *(.rel.data.*)
 *(.rel.gnu.linkonce.d*)

.rela.data
 *(.rela.data)
 *(.rela.data.*)
 *(.rela.gnu.linkonce.d*)

.rel.ctors
 *(.rel.ctors)

.rela.ctors
 *(.rela.ctors)

.rel.dtors
 *(.rel.dtors)

.rela.dtors
 *(.rela.dtors)

.rel.got
 *(.rel.got)

.rela.got
 *(.rela.got)

.rel.bss
 *(.rel.bss)

.rela.bss
 *(.rela.bss)

.rel.plt
 *(.rel.plt)

.rela.plt
 *(.rela.plt)

.text           0x0000000000000000     0xf6e0
 *(.vectors)
 .vectors       0x0000000000000000      0x120 /usr/lib/gcc/avr/4.8.1/../../../avr/lib/avr51/crtm128rfa1.o
                0x0000000000000000                __vectors
                0x0000000000000000                __vector_default
 *(.vectors)
 *(.progmem.gcc*)
 .progmem.gcc_sw_table.SNPS_char2Hex
                0x0000000000000120       0x6e objs-128rfa1/sdds-SNPS.o
 .progmem.gcc_sw_table.uip_process
                0x000000000000018e       0x10 contiki-avr-atmega128rfa1.a(uip6.o)
                0x000000000000019e                . = ALIGN (0x2)
                0x000000000000019e                __trampolines_start = .
 *(.trampolines)
 .trampolines   0x000000000000019e        0x0 linker stubs
 *(.trampolines*)
                0x000000000000019e                __trampolines_end = .
 *(.progmem*)
 .progmem.data.__c.6058
                0x000000000000019e        0x2 objs-128rfa1/sdds-contiki-UDP.o
 .progmem.data.__c.6056
                0x00000000000001a0       0x18 objs-128rfa1/sdds-contiki-UDP.o
 .progmem.data.__c.5319
                0x00000000000001b8        0xf objs-128rfa1/sdds-contiki-Log.o
 .progmem.data.__c.5298
                0x00000000000001c7        0xf objs-128rfa1/sdds-contiki-Log.o
 .progmem.data.__c.5516
                0x00000000000001d6        0x3 contiki-avr-atmega128rfa1.a(contiki-main.o)
 .progmem.data.__c.5514
                0x00000000000001d9        0x2 contiki-avr-atmega128rfa1.a(contiki-main.o)
 .progmem.data.__c.5512
                0x00000000000001db        0x3 contiki-avr-atmega128rfa1.a(contiki-main.o)
 .progmem.data.__c.5566
                0x00000000000001de       0x1d contiki-avr-atmega128rfa1.a(contiki-main.o)
 .progmem.data.__c.5561
                0x00000000000001fb        0xc contiki-avr-atmega128rfa1.a(contiki-main.o)
 .progmem.data.__c.5559
                0x0000000000000207        0x9 contiki-avr-atmega128rfa1.a(contiki-main.o)
 .progmem.data.__c.5554
                0x0000000000000210        0x8 contiki-avr-atmega128rfa1.a(contiki-main.o)
 .progmem.data.__c.5552
                0x0000000000000218        0xa contiki-avr-atmega128rfa1.a(contiki-main.o)
 .progmem.data.__c.5550
                0x0000000000000222       0x12 contiki-avr-atmega128rfa1.a(contiki-main.o)
 .progmem.data.__c.5547
                0x0000000000000234       0x12 contiki-avr-atmega128rfa1.a(contiki-main.o)
 .progmem.data.__c.5545
                0x0000000000000246        0x9 contiki-avr-atmega128rfa1.a(contiki-main.o)
 .progmem.data.__c.5540
                0x000000000000024f        0x2 contiki-avr-atmega128rfa1.a(contiki-main.o)
 .progmem.data.__c.5538
                0x0000000000000251       0x15 contiki-avr-atmega128rfa1.a(contiki-main.o)
 .progmem.data.__c.5533
                0x0000000000000266        0x2 contiki-avr-atmega128rfa1.a(contiki-main.o)
 .progmem.data.__c.5531
                0x0000000000000268       0x15 contiki-avr-atmega128rfa1.a(contiki-main.o)
 .progmem.data.__c.5504
                0x000000000000027d        0x8 contiki-avr-atmega128rfa1.a(contiki-main.o)
 .progmem.data.__c.5502
                0x0000000000000285       0x11 contiki-avr-atmega128rfa1.a(contiki-main.o)
 .progmem.data.__c.5500
                0x0000000000000296        0xd contiki-avr-atmega128rfa1.a(contiki-main.o)
 .progmem.data.__c.5498
                0x00000000000002a3       0x32 contiki-avr-atmega128rfa1.a(contiki-main.o)
 .progmem.data.__c.5496
                0x00000000000002d5       0x25 contiki-avr-atmega128rfa1.a(contiki-main.o)
 .progmem.data.__c.5494
                0x00000000000002fa       0x20 contiki-avr-atmega128rfa1.a(contiki-main.o)
 .progmem.data.__c.5491
                0x000000000000031a       0x1b contiki-avr-atmega128rfa1.a(contiki-main.o)
 .progmem.data.__c.5321
                0x0000000000000335       0x2d contiki-avr-atmega128rfa1.a(params.o)
 .progmem.data.default_domain_name
                0x0000000000000362        0xa contiki-avr-atmega128rfa1.a(params.o)
                0x0000000000000362                default_domain_name
 .progmem.data.default_server_name
                0x000000000000036c        0xe contiki-avr-atmega128rfa1.a(params.o)
                0x000000000000036c                default_server_name
 .progmem.data.default_mac_address
                0x000000000000037a        0x8 contiki-avr-atmega128rfa1.a(params.o)
                0x000000000000037a                default_mac_address
 .progmem.data.__c.4401
                0x0000000000000382       0x6f contiki-avr-atmega128rfa1.a(print-stats.o)
 .progmem.data.__c.3352
                0x00000000000003f1        0x3 contiki-avr-atmega128rfa1.a(uip-debug.o)
 .progmem.data.__c.3350
                0x00000000000003f4        0x2 contiki-avr-atmega128rfa1.a(uip-debug.o)
 .progmem.data.__c.3348
                0x00000000000003f6        0x3 contiki-avr-atmega128rfa1.a(uip-debug.o)
 .progmem.data.__c.3346
                0x00000000000003f9        0xf contiki-avr-atmega128rfa1.a(uip-debug.o)
                0x0000000000000408                . = ALIGN (0x2)
 *(.jumptables)
 *(.jumptables*)
 *(.lowtext)
 *(.lowtext*)
                0x0000000000000408                __ctors_start = .
 *(.ctors)
                0x0000000000000408                __ctors_end = .
                0x0000000000000408                __dtors_start = .
 *(.dtors)
                0x0000000000000408                __dtors_end = .
 SORT(*)(.ctors)
 SORT(*)(.dtors)
 *(.init0)
 .init0         0x0000000000000408        0x0 /usr/lib/gcc/avr/4.8.1/../../../avr/lib/avr51/crtm128rfa1.o
                0x0000000000000408                __init
 *(.init0)
 *(.init1)
 *(.init1)
 *(.init2)
 .init2         0x0000000000000408        0xc /usr/lib/gcc/avr/4.8.1/../../../avr/lib/avr51/crtm128rfa1.o
 *(.init2)
 *(.init3)
 *(.init3)
 *(.init4)
 .init4         0x0000000000000414       0x1a /usr/lib/gcc/avr/4.8.1/avr51/libgcc.a(_copy_data.o)
                0x0000000000000414                __do_copy_data
 .init4         0x000000000000042e       0x10 /usr/lib/gcc/avr/4.8.1/avr51/libgcc.a(_clear_bss.o)
                0x000000000000042e                __do_clear_bss
 *(.init4)
 *(.init5)
 *(.init5)
 *(.init6)
 *(.init6)
 *(.init7)
 *(.init7)
 *(.init8)
 *(.init8)
 *(.init9)
 .init9         0x000000000000043e        0x8 /usr/lib/gcc/avr/4.8.1/../../../avr/lib/avr51/crtm128rfa1.o
 *(.init9)
 *(.text)
 .text          0x0000000000000446        0x4 /usr/lib/gcc/avr/4.8.1/../../../avr/lib/avr51/crtm128rfa1.o
                0x0000000000000446                __vector_38
                0x0000000000000446                __vector_22
                0x0000000000000446                __vector_28
                0x0000000000000446                __vector_67
                0x0000000000000446                __vector_1
                0x0000000000000446                __vector_71
                0x0000000000000446                __vector_34
                0x0000000000000446                __vector_24
                0x0000000000000446                __vector_12
                0x0000000000000446                __vector_55
                0x0000000000000446                __vector_69
                0x0000000000000446                __vector_46
                0x0000000000000446                __bad_interrupt
                0x0000000000000446                __vector_6
                0x0000000000000446                __vector_31
                0x0000000000000446                __vector_35
                0x0000000000000446                __vector_39
                0x0000000000000446                __vector_3
                0x0000000000000446                __vector_23
                0x0000000000000446                __vector_68
                0x0000000000000446                __vector_30
                0x0000000000000446                __vector_45
                0x0000000000000446                __vector_11
                0x0000000000000446                __vector_54
                0x0000000000000446                __vector_17
                0x0000000000000446                __vector_19
                0x0000000000000446                __vector_56
                0x0000000000000446                __vector_7
                0x0000000000000446                __vector_49
                0x0000000000000446                __vector_41
                0x0000000000000446                __vector_43
                0x0000000000000446                __vector_27
                0x0000000000000446                __vector_5
                0x0000000000000446                __vector_33
                0x0000000000000446                __vector_47
                0x0000000000000446                __vector_52
                0x0000000000000446                __vector_37
                0x0000000000000446                __vector_4
                0x0000000000000446                __vector_44
                0x0000000000000446                __vector_51
                0x0000000000000446                __vector_9
                0x0000000000000446                __vector_2
                0x0000000000000446                __vector_15
                0x0000000000000446                __vector_66
                0x0000000000000446                __vector_70
                0x0000000000000446                __vector_29
                0x0000000000000446                __vector_40
                0x0000000000000446                __vector_8
                0x0000000000000446                __vector_26
                0x0000000000000446                __vector_48
                0x0000000000000446                __vector_14
                0x0000000000000446                __vector_53
                0x0000000000000446                __vector_10
                0x0000000000000446                __vector_50
                0x0000000000000446                __vector_16
                0x0000000000000446                __vector_18
                0x0000000000000446                __vector_20
                0x0000000000000446                __vector_42
                0x0000000000000446                __vector_65
                0x000000000000044a                . = ALIGN (0x2)
 *(.text.*)
 .text.process_thread_messung1_contiki
                0x000000000000044a       0xa6 sdds.co
 .text.DataSource_getTopic
                0x00000000000004f0       0xd4 objs-128rfa1/sdds-DataSource.o
                0x00000000000004f0                DataSource_getTopic
 .text.DataSource_getDataWrites
                0x00000000000005c4      0x10e objs-128rfa1/sdds-DataSource.o
                0x00000000000005c4                DataSource_getDataWrites
 .text.DataSource_init
                0x00000000000006d2       0x3c objs-128rfa1/sdds-DataSource.o
                0x00000000000006d2                DataSource_init
 .text.DataSource_create_datawriter
                0x000000000000070e       0x80 objs-128rfa1/sdds-DataSource.o
                0x000000000000070e                DataSource_create_datawriter
 .text.findFreeFrame
                0x000000000000078e      0x100 objs-128rfa1/sdds-DataSource.o
                0x000000000000078e                findFreeFrame
 .text.checkSending
                0x000000000000088e       0x2e objs-128rfa1/sdds-DataSource.o
                0x000000000000088e                checkSending
 .text.DataSource_write
                0x00000000000008bc       0xc8 objs-128rfa1/sdds-DataSource.o
                0x00000000000008bc                DataSource_write
 .text.DataSource_writeAddress
                0x0000000000000984       0xc2 objs-128rfa1/sdds-DataSource.o
                0x0000000000000984                DataSource_writeAddress
 .text.TopicMarshalling_DCPSParticipant_cpy
                0x0000000000000a46       0x18 objs-128rfa1/sdds-BuiltinTopic.o
                0x0000000000000a46                TopicMarshalling_DCPSParticipant_cpy
 .text.TopicMarshalling_DCPSTopic_cpy
                0x0000000000000a5e       0x12 objs-128rfa1/sdds-BuiltinTopic.o
                0x0000000000000a5e                TopicMarshalling_DCPSTopic_cpy
 .text.TopicMarshalling_DCPSPublication_cpy
                0x0000000000000a70       0x12 objs-128rfa1/sdds-BuiltinTopic.o
                0x0000000000000a70                TopicMarshalling_DCPSPublication_cpy
 .text.TopicMarshalling_DCPSSubscription_cpy
                0x0000000000000a82       0x12 objs-128rfa1/sdds-BuiltinTopic.o
                0x0000000000000a82                TopicMarshalling_DCPSSubscription_cpy
 .text.TopicMarshalling_DCPSParticipant_encode
                0x0000000000000a94       0x20 objs-128rfa1/sdds-BuiltinTopic.o
                0x0000000000000a94                TopicMarshalling_DCPSParticipant_encode
 .text.TopicMarshalling_DCPSPublication_encode
                0x0000000000000ab4       0x64 objs-128rfa1/sdds-BuiltinTopic.o
                0x0000000000000ab4                TopicMarshalling_DCPSPublication_encode
 .text.TopicMarshalling_DCPSSubscription_encode
                0x0000000000000b18       0x64 objs-128rfa1/sdds-BuiltinTopic.o
                0x0000000000000b18                TopicMarshalling_DCPSSubscription_encode
 .text.TopicMarshalling_DCPSPublication_decode
                0x0000000000000b7c       0xac objs-128rfa1/sdds-BuiltinTopic.o
                0x0000000000000b7c                TopicMarshalling_DCPSPublication_decode
 .text.TopicMarshalling_DCPSParticipant_decode
                0x0000000000000c28       0xf0 objs-128rfa1/sdds-BuiltinTopic.o
                0x0000000000000c28                TopicMarshalling_DCPSParticipant_decode
 .text.TopicMarshalling_DCPSSubscription_decode
                0x0000000000000d18      0x124 objs-128rfa1/sdds-BuiltinTopic.o
                0x0000000000000d18                TopicMarshalling_DCPSSubscription_decode
 .text.TopicMarshalling_DCPSTopic_encode
                0x0000000000000e3c       0x82 objs-128rfa1/sdds-BuiltinTopic.o
                0x0000000000000e3c                TopicMarshalling_DCPSTopic_encode
 .text.TopicMarshalling_DCPSTopic_decode
                0x0000000000000ebe       0x98 objs-128rfa1/sdds-BuiltinTopic.o
                0x0000000000000ebe                TopicMarshalling_DCPSTopic_decode
 .text.DDS_DCPSParticipantDataReader_take_next_sample
                0x0000000000000f56       0x1c objs-128rfa1/sdds-BuiltinTopic.o
                0x0000000000000f56                DDS_DCPSParticipantDataReader_take_next_sample
 .text.DDS_DCPSParticipantDataWriter_write
                0x0000000000000f72       0x4a objs-128rfa1/sdds-BuiltinTopic.o
                0x0000000000000f72                DDS_DCPSParticipantDataWriter_write
 .text.sDDS_DCPSParticipantTopic_create
                0x0000000000000fbc       0x82 objs-128rfa1/sdds-BuiltinTopic.o
                0x0000000000000fbc                sDDS_DCPSParticipantTopic_create
 .text.sDDS_DCPSTopicTopic_create
                0x000000000000103e       0x84 objs-128rfa1/sdds-BuiltinTopic.o
                0x000000000000103e                sDDS_DCPSTopicTopic_create
 .text.DDS_DCPSPublicationDataWriter_write
                0x00000000000010c2       0x14 objs-128rfa1/sdds-BuiltinTopic.o
                0x00000000000010c2                DDS_DCPSPublicationDataWriter_write
 .text.sDDS_DCPSPublicationTopic_create
                0x00000000000010d6       0x84 objs-128rfa1/sdds-BuiltinTopic.o
                0x00000000000010d6                sDDS_DCPSPublicationTopic_create
 .text.DDS_DCPSSubscriptionDataReader_take_next_sample
                0x000000000000115a       0x1c objs-128rfa1/sdds-BuiltinTopic.o
                0x000000000000115a                DDS_DCPSSubscriptionDataReader_take_next_sample
 .text.sDDS_DCPSSubscriptionTopic_create
                0x0000000000001176       0x84 objs-128rfa1/sdds-BuiltinTopic.o
                0x0000000000001176                sDDS_DCPSSubscriptionTopic_create
 .text.BuiltinTopic_init
                0x00000000000011fa      0x2ae objs-128rfa1/sdds-BuiltinTopic.o
                0x00000000000011fa                BuiltinTopic_init
 .text.BuildinTopic_isBuiltinTopic
                0x00000000000014a8       0x12 objs-128rfa1/sdds-BuiltinTopic.o
                0x00000000000014a8                BuildinTopic_isBuiltinTopic
 .text.DataSink_getTopic
                0x00000000000014ba       0xd2 objs-128rfa1/sdds-DataSink.o
                0x00000000000014ba                DataSink_getTopic
 .text.DataSink_getAddr
                0x000000000000158c       0x28 objs-128rfa1/sdds-DataSink.o
                0x000000000000158c                DataSink_getAddr
 .text.DataSink_init
                0x00000000000015b4       0x14 objs-128rfa1/sdds-DataSink.o
                0x00000000000015b4                DataSink_init
 .text.DataSink_create_datareader
                0x00000000000015c8       0x5e objs-128rfa1/sdds-DataSink.o
                0x00000000000015c8                DataSink_create_datareader
 .text.DataSink_take_next_sample
                0x0000000000001626       0xa6 objs-128rfa1/sdds-DataSink.o
                0x0000000000001626                DataSink_take_next_sample
 .text.submitData
                0x00000000000016cc       0x18 objs-128rfa1/sdds-DataSink.o
                0x00000000000016cc                submitData
 .text.parseData
                0x00000000000016e4       0x6c objs-128rfa1/sdds-DataSink.o
                0x00000000000016e4                parseData
 .text.checkDomain
                0x0000000000001750       0x3a objs-128rfa1/sdds-DataSink.o
                0x0000000000001750                checkDomain
 .text.checkTopic
                0x000000000000178a       0x26 objs-128rfa1/sdds-DataSink.o
                0x000000000000178a                checkTopic
 .text.DataSink_processFrame
                0x00000000000017b0      0x16c objs-128rfa1/sdds-DataSink.o
                0x00000000000017b0                DataSink_processFrame
 .text.decode   0x000000000000191c       0x1e objs-128rfa1/sdds-Marshalling.o
                0x000000000000191c                decode
 .text.Marshalling_dec_SubMsg
                0x000000000000193a       0x50 objs-128rfa1/sdds-Marshalling.o
                0x000000000000193a                Marshalling_dec_SubMsg
 .text.Marshalling_dec_uint8
                0x000000000000198a        0xc objs-128rfa1/sdds-Marshalling.o
                0x000000000000198a                Marshalling_dec_uint8
 .text.Marshalling_dec_string
                0x0000000000001996       0x5e objs-128rfa1/sdds-Marshalling.o
                0x0000000000001996                Marshalling_dec_string
 .text.Marshalling_dec_uint16
                0x00000000000019f4        0xc objs-128rfa1/sdds-Marshalling.o
                0x00000000000019f4                Marshalling_dec_uint16
 .text.encode   0x0000000000001a00       0x1e objs-128rfa1/sdds-Marshalling.o
                0x0000000000001a00                encode
 .text.Marshalling_enc_SubMsg
                0x0000000000001a1e       0x2e objs-128rfa1/sdds-Marshalling.o
                0x0000000000001a1e                Marshalling_enc_SubMsg
 .text.Marshalling_enc_int8
                0x0000000000001a4c        0xc objs-128rfa1/sdds-Marshalling.o
                0x0000000000001a4c                Marshalling_enc_int8
 .text.Marshalling_enc_uint8
                0x0000000000001a58        0xc objs-128rfa1/sdds-Marshalling.o
                0x0000000000001a58                Marshalling_enc_uint8
 .text.Marshalling_enc_string
                0x0000000000001a64       0x4c objs-128rfa1/sdds-Marshalling.o
                0x0000000000001a64                Marshalling_enc_string
 .text.Marshalling_enc_uint16
                0x0000000000001ab0        0xc objs-128rfa1/sdds-Marshalling.o
                0x0000000000001ab0                Marshalling_enc_uint16
 .text.NetBuffRef_renew
                0x0000000000001abc       0x18 objs-128rfa1/sdds-NetBuffRef.o
                0x0000000000001abc                NetBuffRef_renew
 .text.NetBuffRef_init
                0x0000000000001ad4       0x46 objs-128rfa1/sdds-NetBuffRef.o
                0x0000000000001ad4                NetBuffRef_init
 .text.TopicDB_createTopic
                0x0000000000001b1a       0x44 objs-128rfa1/sdds-TopicDB.o
                0x0000000000001b1a                TopicDB_createTopic
 .text.TopicDB_checkDomain
                0x0000000000001b5e       0x32 objs-128rfa1/sdds-TopicDB.o
                0x0000000000001b5e                TopicDB_checkDomain
 .text.TopicDB_getTopic
                0x0000000000001b90       0x42 objs-128rfa1/sdds-TopicDB.o
                0x0000000000001b90                TopicDB_getTopic
 .text.Discovery_sendPublicationTopics
                0x0000000000001bd2       0xc2 objs-128rfa1/sdds-Discovery.o
 .text.Discovery_sendParticipantTopics
                0x0000000000001c94       0x56 objs-128rfa1/sdds-Discovery.o
 .text.Discovery_receive
                0x0000000000001cea      0x1c4 objs-128rfa1/sdds-Discovery.o
                0x0000000000001cea                Discovery_receive
 .text.Discovery_init
                0x0000000000001eae       0xfe objs-128rfa1/sdds-Discovery.o
                0x0000000000001eae                Discovery_init
 .text.Msg_init
                0x0000000000001fac       0x10 objs-128rfa1/sdds-Msg.o
                0x0000000000001fac                Msg_init
 .text.MsgPool_getFreeMsg
                0x0000000000001fbc       0x4a objs-128rfa1/sdds-Msg.o
                0x0000000000001fbc                MsgPool_getFreeMsg
 .text.MsgPool_getNextMsg
                0x0000000000002006       0x38 objs-128rfa1/sdds-Msg.o
                0x0000000000002006                MsgPool_getNextMsg
 .text.Msg_getData
                0x000000000000203e       0x10 objs-128rfa1/sdds-Msg.o
                0x000000000000203e                Msg_getData
 .text.Locator_upRef
                0x000000000000204e       0x12 objs-128rfa1/sdds-Locator.o
                0x000000000000204e                Locator_upRef
 .text.Locator_downRef
                0x0000000000002060       0x1e objs-128rfa1/sdds-Locator.o
                0x0000000000002060                Locator_downRef
 .text.Locator_init
                0x000000000000207e       0x1e objs-128rfa1/sdds-Locator.o
                0x000000000000207e                Locator_init
 .text.Locator_addToList
                0x000000000000209c       0x5c objs-128rfa1/sdds-Locator.o
                0x000000000000209c                Locator_addToList
 .text.Locator_contains
                0x00000000000020f8       0x40 objs-128rfa1/sdds-Locator.o
                0x00000000000020f8                Locator_contains
 .text.SNPS_evalSubMsg
                0x0000000000002138       0x7c objs-128rfa1/sdds-SNPS.o
                0x0000000000002138                SNPS_evalSubMsg
 .text.SNPS_discardSubMsg
                0x00000000000021b4       0x7c objs-128rfa1/sdds-SNPS.o
                0x00000000000021b4                SNPS_discardSubMsg
 .text.SNPS_gotoNextSubMsg
                0x0000000000002230       0x4c objs-128rfa1/sdds-SNPS.o
                0x0000000000002230                SNPS_gotoNextSubMsg
 .text.SNPS_initFrame
                0x000000000000227c       0x50 objs-128rfa1/sdds-SNPS.o
                0x000000000000227c                SNPS_initFrame
 .text.SNPS_readHeader
                0x00000000000022cc       0x56 objs-128rfa1/sdds-SNPS.o
                0x00000000000022cc                SNPS_readHeader
 .text.SNPS_updateHeader
                0x0000000000002322       0x12 objs-128rfa1/sdds-SNPS.o
                0x0000000000002322                SNPS_updateHeader
 .text.SNPS_writeDomain
                0x0000000000002334       0x2c objs-128rfa1/sdds-SNPS.o
                0x0000000000002334                SNPS_writeDomain
 .text.SNPS_readDomain
                0x0000000000002360       0x2c objs-128rfa1/sdds-SNPS.o
                0x0000000000002360                SNPS_readDomain
 .text._writeBasicTopic
                0x000000000000238c       0x2c objs-128rfa1/sdds-SNPS.o
                0x000000000000238c                _writeBasicTopic
 .text._writeExtTopic
                0x00000000000023b8       0x5c objs-128rfa1/sdds-SNPS.o
                0x00000000000023b8                _writeExtTopic
 .text.SNPS_writeTopic
                0x0000000000002414        0xc objs-128rfa1/sdds-SNPS.o
                0x0000000000002414                SNPS_writeTopic
 .text.SNPS_readTopic
                0x0000000000002420       0xb2 objs-128rfa1/sdds-SNPS.o
                0x0000000000002420                SNPS_readTopic
 .text.SNPS_writeData
                0x00000000000024d2       0x80 objs-128rfa1/sdds-SNPS.o
                0x00000000000024d2                SNPS_writeData
 .text.SNPS_readData
                0x0000000000002552       0x84 objs-128rfa1/sdds-SNPS.o
                0x0000000000002552                SNPS_readData
 .text.SNPS_char2Hex
                0x00000000000025d6       0x6e objs-128rfa1/sdds-SNPS.o
                0x00000000000025d6                SNPS_char2Hex
 .text.SNPS_IPv6_str2Addr
                0x0000000000002644      0x176 objs-128rfa1/sdds-SNPS.o
                0x0000000000002644                SNPS_IPv6_str2Addr
 .text.SNPS_IPv6_addr2Str
                0x00000000000027ba       0x4a objs-128rfa1/sdds-SNPS.o
                0x00000000000027ba                SNPS_IPv6_addr2Str
 .text.SNPS_writeAddress
                0x0000000000002804       0x9c objs-128rfa1/sdds-SNPS.o
                0x0000000000002804                SNPS_writeAddress
 .text.SNPS_readAddress
                0x00000000000028a0       0xec objs-128rfa1/sdds-SNPS.o
                0x00000000000028a0                SNPS_readAddress
 .text.LocatorDB_init
                0x000000000000298c       0x3a objs-128rfa1/sdds-LocatorDB.o
                0x000000000000298c                LocatorDB_init
 .text.LocatorDB_newLocator
                0x00000000000029c6       0x5e objs-128rfa1/sdds-LocatorDB.o
                0x00000000000029c6                LocatorDB_newLocator
 .text.LocatorDB_newMultiLocator
                0x0000000000002a24       0x5c objs-128rfa1/sdds-LocatorDB.o
                0x0000000000002a24                LocatorDB_newMultiLocator
 .text.LocatorDB_freeLocator
                0x0000000000002a80       0x26 objs-128rfa1/sdds-LocatorDB.o
                0x0000000000002a80                LocatorDB_freeLocator
 .text.LocatorDB_findLocator
                0x0000000000002aa6       0x60 objs-128rfa1/sdds-LocatorDB.o
                0x0000000000002aa6                LocatorDB_findLocator
 .text.Topic_getFreeMsg
                0x0000000000002b06        0x6 objs-128rfa1/sdds-Topic.o
                0x0000000000002b06                Topic_getFreeMsg
 .text.Topic_getNextMsg
                0x0000000000002b0c        0x6 objs-128rfa1/sdds-Topic.o
                0x0000000000002b0c                Topic_getNextMsg
 .text.Topic_addRemoteDataSink
                0x0000000000002b12       0x54 objs-128rfa1/sdds-Topic.o
                0x0000000000002b12                Topic_addRemoteDataSink
 .text.NodeConfig_getNodeID
                0x0000000000002b66       0x9c objs-128rfa1/sdds-contiki-NodeConfig.o
                0x0000000000002b66                NodeConfig_getNodeID
 .text.receive  0x0000000000002c02      0x144 objs-128rfa1/sdds-contiki-UDP.o
                0x0000000000002c02                receive
 .text.Network_send
                0x0000000000002d46      0x116 objs-128rfa1/sdds-contiki-UDP.o
                0x0000000000002d46                Network_send
 .text.Locator_isEqual
                0x0000000000002e5c       0x3e objs-128rfa1/sdds-contiki-UDP.o
                0x0000000000002e5c                Locator_isEqual
 .text.Network_getFrameBuff
                0x0000000000002e9a       0x56 objs-128rfa1/sdds-contiki-UDP.o
                0x0000000000002e9a                Network_getFrameBuff
 .text.Network_getPayloadBegin
                0x0000000000002ef0        0xe objs-128rfa1/sdds-contiki-UDP.o
                0x0000000000002ef0                Network_getPayloadBegin
 .text.Network_setAddressToLocator
                0x0000000000002efe       0x2e objs-128rfa1/sdds-contiki-UDP.o
                0x0000000000002efe                Network_setAddressToLocator
 .text.Network_createLocator
                0x0000000000002f2c       0x56 objs-128rfa1/sdds-contiki-UDP.o
                0x0000000000002f2c                Network_createLocator
 .text.Network_setMulticastAddressToLocator
                0x0000000000002f82       0x2e objs-128rfa1/sdds-contiki-UDP.o
                0x0000000000002f82                Network_setMulticastAddressToLocator
 .text.Network_Multicast_joinMulticastGroup
                0x0000000000002fb0       0x70 objs-128rfa1/sdds-contiki-UDP.o
                0x0000000000002fb0                Network_Multicast_joinMulticastGroup
 .text.Network_Multicast_init
                0x0000000000003020       0x7a objs-128rfa1/sdds-contiki-UDP.o
                0x0000000000003020                Network_Multicast_init
 .text.Network_init
                0x000000000000309a       0x54 objs-128rfa1/sdds-contiki-UDP.o
                0x000000000000309a                Network_init
 .text.Locator_getAddress
                0x00000000000030ee       0x86 objs-128rfa1/sdds-contiki-UDP.o
                0x00000000000030ee                Locator_getAddress
 .text.Log_setLvl
                0x0000000000003174        0xa objs-128rfa1/sdds-contiki-Log.o
                0x0000000000003174                Log_setLvl
 .text._log_debug
                0x000000000000317e       0x56 objs-128rfa1/sdds-contiki-Log.o
                0x000000000000317e                _log_debug
 .text._log_error
                0x00000000000031d4       0x54 objs-128rfa1/sdds-contiki-Log.o
                0x00000000000031d4                _log_error
 .text.Memory_init
                0x0000000000003228        0x4 objs-128rfa1/sdds-contiki-Memory.o
                0x0000000000003228                Memory_init
 .text.Memory_alloc
                0x000000000000322c        0x4 objs-128rfa1/sdds-contiki-Memory.o
                0x000000000000322c                Memory_alloc
 .text.process_thread_task_process
                0x0000000000003230       0xe0 objs-128rfa1/sdds-contiki-Task.o
 .text.TaskMng_init
                0x0000000000003310       0x10 objs-128rfa1/sdds-contiki-Task.o
                0x0000000000003310                TaskMng_init
 .text.Task_create
                0x0000000000003320       0x4e objs-128rfa1/sdds-contiki-Task.o
                0x0000000000003320                Task_create
 .text.Task_init
                0x000000000000336e        0xe objs-128rfa1/sdds-contiki-Task.o
                0x000000000000336e                Task_init
 .text.Task_start
                0x000000000000337c       0x1e objs-128rfa1/sdds-contiki-Task.o
                0x000000000000337c                Task_start
 .text.sDDS_init
                0x000000000000339a      0x112 objs-128rfa1/atmega_sdds_impl.o
                0x000000000000339a                sDDS_init
 .text.TopicMarshalling_Alpha_cpy
                0x00000000000034ac        0xc objs-128rfa1/alpha-ds.o
                0x00000000000034ac                TopicMarshalling_Alpha_cpy
 .text.TopicMarshalling_Alpha_encode
                0x00000000000034b8       0x20 objs-128rfa1/alpha-ds.o
                0x00000000000034b8                TopicMarshalling_Alpha_encode
 .text.DDS_AlphaDataWriter_write
                0x00000000000034d8       0x14 objs-128rfa1/alpha-ds.o
                0x00000000000034d8                DDS_AlphaDataWriter_write
 .text.sDDS_AlphaTopic_create
                0x00000000000034ec       0x78 objs-128rfa1/alpha-ds.o
                0x00000000000034ec                sDDS_AlphaTopic_create
 .text.TopicMarshalling_Beta_cpy
                0x0000000000003564        0xc objs-128rfa1/beta-ds.o
                0x0000000000003564                TopicMarshalling_Beta_cpy
 .text.TopicMarshalling_Beta_encode
                0x0000000000003570       0x20 objs-128rfa1/beta-ds.o
                0x0000000000003570                TopicMarshalling_Beta_encode
 .text.DDS_BetaDataWriter_write
                0x0000000000003590       0x14 objs-128rfa1/beta-ds.o
                0x0000000000003590                DDS_BetaDataWriter_write
 .text.sDDS_BetaTopic_create
                0x00000000000035a4       0x78 objs-128rfa1/beta-ds.o
                0x00000000000035a4                sDDS_BetaTopic_create
 .text.ipaddr_add
                0x000000000000361c       0xc6 contiki-avr-atmega128rfa1.a(contiki-main.o)
 .text.rng_get_uint8
                0x00000000000036e2       0x28 contiki-avr-atmega128rfa1.a(contiki-main.o)
                0x00000000000036e2                rng_get_uint8
 .text.initialize
                0x000000000000370a      0x226 contiki-avr-atmega128rfa1.a(contiki-main.o)
                0x000000000000370a                initialize
 .text.startup.main
                0x0000000000003930      0x274 contiki-avr-atmega128rfa1.a(contiki-main.o)
                0x0000000000003930                main
 .text.params_get_channel
                0x0000000000003ba4      0x10c contiki-avr-atmega128rfa1.a(params.o)
                0x0000000000003ba4                params_get_channel
 .text.params_get_eui64
                0x0000000000003cb0       0x5c contiki-avr-atmega128rfa1.a(params.o)
                0x0000000000003cb0                params_get_eui64
 .text.params_get_panid
                0x0000000000003d0c        0x8 contiki-avr-atmega128rfa1.a(params.o)
                0x0000000000003d0c                params_get_panid
 .text.params_get_panaddr
                0x0000000000003d14        0x8 contiki-avr-atmega128rfa1.a(params.o)
                0x0000000000003d14                params_get_panaddr
 .text.params_get_txpower
                0x0000000000003d1c        0x8 contiki-avr-atmega128rfa1.a(params.o)
                0x0000000000003d1c                params_get_txpower
 .text.clock_init
                0x0000000000003d24       0x20 contiki-avr-atmega128rfa1.a(clock.o)
                0x0000000000003d24                clock_init
 .text.clock_time
                0x0000000000003d44       0x18 contiki-avr-atmega128rfa1.a(clock.o)
                0x0000000000003d44                clock_time
 .text.clock_seconds
                0x0000000000003d5c       0x34 contiki-avr-atmega128rfa1.a(clock.o)
                0x0000000000003d5c                clock_seconds
 .text.__vector_21
                0x0000000000003d90       0xe0 contiki-avr-atmega128rfa1.a(clock.o)
                0x0000000000003d90                __vector_21
 .text.__vector_25
                0x0000000000003e70       0x5e contiki-avr-atmega128rfa1.a(rs232.o)
                0x0000000000003e70                __vector_25
 .text.__vector_36
                0x0000000000003ece       0x5e contiki-avr-atmega128rfa1.a(rs232.o)
                0x0000000000003ece                __vector_36
 .text.rs232_init
                0x0000000000003f2c       0x40 contiki-avr-atmega128rfa1.a(rs232.o)
                0x0000000000003f2c                rs232_init
 .text.rs232_send
                0x0000000000003f6c       0x24 contiki-avr-atmega128rfa1.a(rs232.o)
                0x0000000000003f6c                rs232_send
 .text.rs232_stdout_putchar
                0x0000000000003f90       0x2a contiki-avr-atmega128rfa1.a(rs232.o)
                0x0000000000003f90                rs232_stdout_putchar
 .text.rs232_redirect_stdout
                0x0000000000003fba       0x12 contiki-avr-atmega128rfa1.a(rs232.o)
                0x0000000000003fba                rs232_redirect_stdout
 .text.watchdog_init
                0x0000000000003fcc       0x18 contiki-avr-atmega128rfa1.a(watchdog.o)
                0x0000000000003fcc                watchdog_init
 .text.watchdog_start
                0x0000000000003fe4       0x18 contiki-avr-atmega128rfa1.a(watchdog.o)
                0x0000000000003fe4                watchdog_start
 .text.watchdog_periodic
                0x0000000000003ffc        0x4 contiki-avr-atmega128rfa1.a(watchdog.o)
                0x0000000000003ffc                watchdog_periodic
 .text.random_init
                0x0000000000004000        0x4 contiki-avr-atmega128rfa1.a(random.o)
                0x0000000000004000                random_init
 .text.random_rand
                0x0000000000004004        0x4 contiki-avr-atmega128rfa1.a(random.o)
                0x0000000000004004                random_rand
 .text.get_value
                0x0000000000004008        0x6 contiki-avr-atmega128rfa1.a(rf230bb.o)
 .text.set_value
                0x000000000000400e        0x6 contiki-avr-atmega128rfa1.a(rf230bb.o)
 .text.get_object
                0x0000000000004014        0x6 contiki-avr-atmega128rfa1.a(rf230bb.o)
 .text.set_object
                0x000000000000401a        0x6 contiki-avr-atmega128rfa1.a(rf230bb.o)
 .text.rf230_pending_packet
                0x0000000000004020        0x8 contiki-avr-atmega128rfa1.a(rf230bb.o)
 .text.radio_reset_state_machine
                0x0000000000004028       0x32 contiki-avr-atmega128rfa1.a(rf230bb.o)
 .text.set_txpower
                0x000000000000405a       0x1e contiki-avr-atmega128rfa1.a(rf230bb.o)
 .text.rf230_isidle
                0x0000000000004078       0x2c contiki-avr-atmega128rfa1.a(rf230bb.o)
 .text.rf230_waitidle
                0x00000000000040a4       0x12 contiki-avr-atmega128rfa1.a(rf230bb.o)
 .text.rf230_receiving_packet
                0x00000000000040b6       0x2a contiki-avr-atmega128rfa1.a(rf230bb.o)
 .text.radio_off
                0x00000000000040e0      0x126 contiki-avr-atmega128rfa1.a(rf230bb.o)
 .text.rf230_off
                0x0000000000004206       0x16 contiki-avr-atmega128rfa1.a(rf230bb.o)
 .text.rf230_prepare
                0x000000000000421c       0x32 contiki-avr-atmega128rfa1.a(rf230bb.o)
 .text.radio_get_trx_state
                0x000000000000424e        0xc contiki-avr-atmega128rfa1.a(rf230bb.o)
                0x000000000000424e                radio_get_trx_state
 .text.radio_set_trx_state
                0x000000000000425a       0xbc contiki-avr-atmega128rfa1.a(rf230bb.o)
 .text.radio_on
                0x0000000000004316       0x6c contiki-avr-atmega128rfa1.a(rf230bb.o)
 .text.rf230_on
                0x0000000000004382       0x12 contiki-avr-atmega128rfa1.a(rf230bb.o)
 .text.rf230_cca
                0x0000000000004394      0x128 contiki-avr-atmega128rfa1.a(rf230bb.o)
 .text.rf230_warm_reset
                0x00000000000044bc       0x3e contiki-avr-atmega128rfa1.a(rf230bb.o)
                0x00000000000044bc                rf230_warm_reset
 .text.rf230_init
                0x00000000000044fa       0x76 contiki-avr-atmega128rfa1.a(rf230bb.o)
                0x00000000000044fa                rf230_init
 .text.rf230_get_channel
                0x0000000000004570        0x6 contiki-avr-atmega128rfa1.a(rf230bb.o)
                0x0000000000004570                rf230_get_channel
 .text.rf230_set_channel
                0x0000000000004576       0x2a contiki-avr-atmega128rfa1.a(rf230bb.o)
                0x0000000000004576                rf230_set_channel
 .text.rf230_set_pan_addr
                0x00000000000045a0       0x48 contiki-avr-atmega128rfa1.a(rf230bb.o)
                0x00000000000045a0                rf230_set_pan_addr
 .text.rf230_interrupt
                0x00000000000045e8       0x26 contiki-avr-atmega128rfa1.a(rf230bb.o)
                0x00000000000045e8                rf230_interrupt
 .text.rf230_read
                0x000000000000460e       0xce contiki-avr-atmega128rfa1.a(rf230bb.o)
 .text.process_thread_rf230_process
                0x00000000000046dc       0x8a contiki-avr-atmega128rfa1.a(rf230bb.o)
 .text.rf230_set_txpower
                0x0000000000004766        0x4 contiki-avr-atmega128rfa1.a(rf230bb.o)
                0x0000000000004766                rf230_set_txpower
 .text.rf230_get_txpower
                0x000000000000476a       0x18 contiki-avr-atmega128rfa1.a(rf230bb.o)
                0x000000000000476a                rf230_get_txpower
 .text.rf230_transmit
                0x0000000000004782      0x25c contiki-avr-atmega128rfa1.a(rf230bb.o)
 .text.rf230_send
                0x00000000000049de       0x32 contiki-avr-atmega128rfa1.a(rf230bb.o)
 .text.hal_init
                0x0000000000004a10        0x2 contiki-avr-atmega128rfa1.a(halbb.o)
                0x0000000000004a10                hal_init
 .text.hal_subregister_read
                0x0000000000004a12       0x14 contiki-avr-atmega128rfa1.a(halbb.o)
                0x0000000000004a12                hal_subregister_read
 .text.hal_subregister_write
                0x0000000000004a26       0x36 contiki-avr-atmega128rfa1.a(halbb.o)
                0x0000000000004a26                hal_subregister_write
 .text.hal_frame_read
                0x0000000000004a5c       0x54 contiki-avr-atmega128rfa1.a(halbb.o)
                0x0000000000004a5c                hal_frame_read
 .text.hal_frame_write
                0x0000000000004ab0       0x22 contiki-avr-atmega128rfa1.a(halbb.o)
                0x0000000000004ab0                hal_frame_write
 .text.__vector_60
                0x0000000000004ad2       0x80 contiki-avr-atmega128rfa1.a(halbb.o)
                0x0000000000004ad2                __vector_60
 .text.__vector_59
                0x0000000000004b52       0x14 contiki-avr-atmega128rfa1.a(halbb.o)
                0x0000000000004b52                __vector_59
 .text.__vector_57
                0x0000000000004b66       0x14 contiki-avr-atmega128rfa1.a(halbb.o)
                0x0000000000004b66                __vector_57
 .text.__vector_58
                0x0000000000004b7a       0x14 contiki-avr-atmega128rfa1.a(halbb.o)
                0x0000000000004b7a                __vector_58
 .text.__vector_64
                0x0000000000004b8e       0x18 contiki-avr-atmega128rfa1.a(halbb.o)
                0x0000000000004b8e                __vector_64
 .text.__vector_63
                0x0000000000004ba6       0x18 contiki-avr-atmega128rfa1.a(halbb.o)
                0x0000000000004ba6                __vector_63
 .text.__vector_62
                0x0000000000004bbe       0x14 contiki-avr-atmega128rfa1.a(halbb.o)
                0x0000000000004bbe                __vector_62
 .text.__vector_61
                0x0000000000004bd2       0x18 contiki-avr-atmega128rfa1.a(halbb.o)
                0x0000000000004bd2                __vector_61
 .text.autostart_start
                0x0000000000004bea       0x1e contiki-avr-atmega128rfa1.a(autostart.o)
                0x0000000000004bea                autostart_start
 .text.process_thread_ctimer_process
                0x0000000000004c08       0xc8 contiki-avr-atmega128rfa1.a(ctimer.o)
 .text.ctimer_init
                0x0000000000004cd0       0x18 contiki-avr-atmega128rfa1.a(ctimer.o)
                0x0000000000004cd0                ctimer_init
 .text.ctimer_set
                0x0000000000004ce8       0x5a contiki-avr-atmega128rfa1.a(ctimer.o)
                0x0000000000004ce8                ctimer_set
 .text.ctimer_reset
                0x0000000000004d42       0x48 contiki-avr-atmega128rfa1.a(ctimer.o)
                0x0000000000004d42                ctimer_reset
 .text.ctimer_stop
                0x0000000000004d8a       0x2e contiki-avr-atmega128rfa1.a(ctimer.o)
                0x0000000000004d8a                ctimer_stop
 .text.update_time
                0x0000000000004db8       0x64 contiki-avr-atmega128rfa1.a(etimer.o)
 .text.etimer_request_poll
                0x0000000000004e1c        0x8 contiki-avr-atmega128rfa1.a(etimer.o)
                0x0000000000004e1c                etimer_request_poll
 .text.process_thread_etimer_process
                0x0000000000004e24      0x106 contiki-avr-atmega128rfa1.a(etimer.o)
 .text.add_timer
                0x0000000000004f2a       0x5e contiki-avr-atmega128rfa1.a(etimer.o)
 .text.etimer_set
                0x0000000000004f88       0x14 contiki-avr-atmega128rfa1.a(etimer.o)
                0x0000000000004f88                etimer_set
 .text.etimer_reset
                0x0000000000004f9c       0x14 contiki-avr-atmega128rfa1.a(etimer.o)
                0x0000000000004f9c                etimer_reset
 .text.etimer_restart
                0x0000000000004fb0       0x14 contiki-avr-atmega128rfa1.a(etimer.o)
                0x0000000000004fb0                etimer_restart
 .text.etimer_expired
                0x0000000000004fc4       0x16 contiki-avr-atmega128rfa1.a(etimer.o)
                0x0000000000004fc4                etimer_expired
 .text.etimer_expiration_time
                0x0000000000004fda       0x10 contiki-avr-atmega128rfa1.a(etimer.o)
                0x0000000000004fda                etimer_expiration_time
 .text.etimer_pending
                0x0000000000004fea       0x16 contiki-avr-atmega128rfa1.a(etimer.o)
                0x0000000000004fea                etimer_pending
 .text.etimer_next_expiration_time
                0x0000000000005000       0x1c contiki-avr-atmega128rfa1.a(etimer.o)
                0x0000000000005000                etimer_next_expiration_time
 .text.etimer_stop
                0x000000000000501c       0x4e contiki-avr-atmega128rfa1.a(etimer.o)
                0x000000000000501c                etimer_stop
 .text.call_process.part.0
                0x000000000000506a       0x4e contiki-avr-atmega128rfa1.a(process.o)
 .text.call_process
                0x00000000000050b8        0xc contiki-avr-atmega128rfa1.a(process.o)
 .text.exit_process
                0x00000000000050c4       0xd8 contiki-avr-atmega128rfa1.a(process.o)
 .text.do_poll  0x000000000000519c       0x3e contiki-avr-atmega128rfa1.a(process.o)
 .text.process_alloc_event
                0x00000000000051da        0xe contiki-avr-atmega128rfa1.a(process.o)
                0x00000000000051da                process_alloc_event
 .text.process_init
                0x00000000000051e8       0x20 contiki-avr-atmega128rfa1.a(process.o)
                0x00000000000051e8                process_init
 .text.process_run
                0x0000000000005208       0xc6 contiki-avr-atmega128rfa1.a(process.o)
                0x0000000000005208                process_run
 .text.process_post
                0x00000000000052ce       0x3c contiki-avr-atmega128rfa1.a(process.o)
                0x00000000000052ce                process_post
 .text.process_post_synch
                0x000000000000530a       0x1e contiki-avr-atmega128rfa1.a(process.o)
                0x000000000000530a                process_post_synch
 .text.process_start
                0x0000000000005328       0x42 contiki-avr-atmega128rfa1.a(process.o)
                0x0000000000005328                process_start
 .text.process_poll
                0x000000000000536a       0x18 contiki-avr-atmega128rfa1.a(process.o)
                0x000000000000536a                process_poll
 .text.rtimer_init
                0x0000000000005382        0x4 contiki-avr-atmega128rfa1.a(rtimer.o)
                0x0000000000005382                rtimer_init
 .text.rtimer_run_next
                0x0000000000005386       0x3e contiki-avr-atmega128rfa1.a(rtimer.o)
                0x0000000000005386                rtimer_run_next
 .text.timer_set
                0x00000000000053c4       0x18 contiki-avr-atmega128rfa1.a(timer.o)
                0x00000000000053c4                timer_set
 .text.timer_reset
                0x00000000000053dc       0x14 contiki-avr-atmega128rfa1.a(timer.o)
                0x00000000000053dc                timer_reset
 .text.timer_restart
                0x00000000000053f0       0x14 contiki-avr-atmega128rfa1.a(timer.o)
                0x00000000000053f0                timer_restart
 .text.timer_expired
                0x0000000000005404       0x30 contiki-avr-atmega128rfa1.a(timer.o)
                0x0000000000005404                timer_expired
 .text.list_init
                0x0000000000005434        0x8 contiki-avr-atmega128rfa1.a(list.o)
                0x0000000000005434                list_init
 .text.list_head
                0x000000000000543c        0x8 contiki-avr-atmega128rfa1.a(list.o)
                0x000000000000543c                list_head
 .text.list_tail
                0x0000000000005444       0x20 contiki-avr-atmega128rfa1.a(list.o)
                0x0000000000005444                list_tail
 .text.list_remove
                0x0000000000005464       0x36 contiki-avr-atmega128rfa1.a(list.o)
                0x0000000000005464                list_remove
 .text.list_add
                0x000000000000549a       0x32 contiki-avr-atmega128rfa1.a(list.o)
                0x000000000000549a                list_add
 .text.list_push
                0x00000000000054cc       0x28 contiki-avr-atmega128rfa1.a(list.o)
                0x00000000000054cc                list_push
 .text.list_length
                0x00000000000054f4       0x1a contiki-avr-atmega128rfa1.a(list.o)
                0x00000000000054f4                list_length
 .text.list_item_next
                0x000000000000550e       0x12 contiki-avr-atmega128rfa1.a(list.o)
                0x000000000000550e                list_item_next
 .text.print_stats
                0x0000000000005520      0x1c0 contiki-avr-atmega128rfa1.a(print-stats.o)
                0x0000000000005520                print_stats
 .text.uip_ds6_list_loop
                0x00000000000056e0       0x96 contiki-avr-atmega128rfa1.a(uip-ds6.o)
                0x00000000000056e0                uip_ds6_list_loop
 .text.uip_ds6_prefix_add
                0x0000000000005776       0xb6 contiki-avr-atmega128rfa1.a(uip-ds6.o)
                0x0000000000005776                uip_ds6_prefix_add
 .text.uip_ds6_is_addr_onlink
                0x000000000000582c       0x60 contiki-avr-atmega128rfa1.a(uip-ds6.o)
                0x000000000000582c                uip_ds6_is_addr_onlink
 .text.uip_ds6_addr_lookup
                0x000000000000588c       0x3a contiki-avr-atmega128rfa1.a(uip-ds6.o)
                0x000000000000588c                uip_ds6_addr_lookup
 .text.uip_ds6_get_link_local
                0x00000000000058c6       0x5a contiki-avr-atmega128rfa1.a(uip-ds6.o)
                0x00000000000058c6                uip_ds6_get_link_local
 .text.uip_ds6_maddr_add
                0x0000000000005920       0x64 contiki-avr-atmega128rfa1.a(uip-ds6.o)
                0x0000000000005920                uip_ds6_maddr_add
 .text.uip_ds6_addr_add
                0x0000000000005984      0x104 contiki-avr-atmega128rfa1.a(uip-ds6.o)
                0x0000000000005984                uip_ds6_addr_add
 .text.uip_ds6_maddr_rm
                0x0000000000005a88        0xa contiki-avr-atmega128rfa1.a(uip-ds6.o)
                0x0000000000005a88                uip_ds6_maddr_rm
 .text.uip_ds6_maddr_lookup
                0x0000000000005a92       0x3a contiki-avr-atmega128rfa1.a(uip-ds6.o)
                0x0000000000005a92                uip_ds6_maddr_lookup
 .text.uip_ds6_addr_rm
                0x0000000000005acc       0x76 contiki-avr-atmega128rfa1.a(uip-ds6.o)
                0x0000000000005acc                uip_ds6_addr_rm
 .text.uip_ds6_periodic
                0x0000000000005b42       0x5c contiki-avr-atmega128rfa1.a(uip-ds6.o)
                0x0000000000005b42                uip_ds6_periodic
 .text.uip_ds6_set_addr_iid
                0x0000000000005b9e       0x1c contiki-avr-atmega128rfa1.a(uip-ds6.o)
                0x0000000000005b9e                uip_ds6_set_addr_iid
 .text.get_match_length
                0x0000000000005bba       0x2a contiki-avr-atmega128rfa1.a(uip-ds6.o)
                0x0000000000005bba                get_match_length
 .text.uip_ds6_select_src
                0x0000000000005be4       0xdc contiki-avr-atmega128rfa1.a(uip-ds6.o)
                0x0000000000005be4                uip_ds6_select_src
 .text.uip_ds6_compute_reachable_time
                0x0000000000005cc0       0x58 contiki-avr-atmega128rfa1.a(uip-ds6.o)
                0x0000000000005cc0                uip_ds6_compute_reachable_time
 .text.uip_ds6_init
                0x0000000000005d18      0x1e2 contiki-avr-atmega128rfa1.a(uip-ds6.o)
                0x0000000000005d18                uip_ds6_init
 .text.call_route_callback
                0x0000000000005efa       0x64 contiki-avr-atmega128rfa1.a(uip-ds6-route.o)
 .text.uip_ds6_route_init
                0x0000000000005f5e       0x34 contiki-avr-atmega128rfa1.a(uip-ds6-route.o)
                0x0000000000005f5e                uip_ds6_route_init
 .text.uip_ds6_route_nexthop
                0x0000000000005f92       0x1c contiki-avr-atmega128rfa1.a(uip-ds6-route.o)
                0x0000000000005f92                uip_ds6_route_nexthop
 .text.uip_ds6_route_head
                0x0000000000005fae        0x8 contiki-avr-atmega128rfa1.a(uip-ds6-route.o)
                0x0000000000005fae                uip_ds6_route_head
 .text.uip_ds6_route_next
                0x0000000000005fb6        0xe contiki-avr-atmega128rfa1.a(uip-ds6-route.o)
                0x0000000000005fb6                uip_ds6_route_next
 .text.uip_ds6_route_lookup
                0x0000000000005fc4       0x96 contiki-avr-atmega128rfa1.a(uip-ds6-route.o)
                0x0000000000005fc4                uip_ds6_route_lookup
 .text.uip_ds6_route_rm
                0x000000000000605a       0xce contiki-avr-atmega128rfa1.a(uip-ds6-route.o)
                0x000000000000605a                uip_ds6_route_rm
 .text.rm_routelist
                0x0000000000006128       0x3e contiki-avr-atmega128rfa1.a(uip-ds6-route.o)
 .text.rm_routelist_callback
                0x0000000000006166        0x4 contiki-avr-atmega128rfa1.a(uip-ds6-route.o)
 .text.uip_ds6_route_add
                0x000000000000616a      0x146 contiki-avr-atmega128rfa1.a(uip-ds6-route.o)
                0x000000000000616a                uip_ds6_route_add
 .text.uip_ds6_defrt_rm
                0x00000000000062b0       0x5c contiki-avr-atmega128rfa1.a(uip-ds6-route.o)
                0x00000000000062b0                uip_ds6_defrt_rm
 .text.uip_ds6_defrt_lookup
                0x000000000000630c       0x44 contiki-avr-atmega128rfa1.a(uip-ds6-route.o)
                0x000000000000630c                uip_ds6_defrt_lookup
 .text.uip_ds6_defrt_add
                0x0000000000006350       0x8c contiki-avr-atmega128rfa1.a(uip-ds6-route.o)
                0x0000000000006350                uip_ds6_defrt_add
 .text.uip_ds6_defrt_choose
                0x00000000000063dc       0x48 contiki-avr-atmega128rfa1.a(uip-ds6-route.o)
                0x00000000000063dc                uip_ds6_defrt_choose
 .text.uip_ds6_defrt_periodic
                0x0000000000006424       0x3a contiki-avr-atmega128rfa1.a(uip-ds6-route.o)
                0x0000000000006424                uip_ds6_defrt_periodic
 .text.chksum   0x000000000000645e       0x4a contiki-avr-atmega128rfa1.a(uip6.o)
 .text.upper_layer_chksum
                0x00000000000064a8       0x72 contiki-avr-atmega128rfa1.a(uip6.o)
 .text.ext_hdr_options_process
                0x000000000000651a       0xd4 contiki-avr-atmega128rfa1.a(uip6.o)
 .text.uip_add32
                0x00000000000065ee       0x6e contiki-avr-atmega128rfa1.a(uip6.o)
                0x00000000000065ee                uip_add32
 .text.unlikely.uip_add_rcv_nxt
                0x000000000000665c       0x34 contiki-avr-atmega128rfa1.a(uip6.o)
 .text.uip_icmp6chksum
                0x0000000000006690        0x6 contiki-avr-atmega128rfa1.a(uip6.o)
                0x0000000000006690                uip_icmp6chksum
 .text.uip_tcpchksum
                0x0000000000006696        0x6 contiki-avr-atmega128rfa1.a(uip6.o)
                0x0000000000006696                uip_tcpchksum
 .text.uip_udpchksum
                0x000000000000669c        0x6 contiki-avr-atmega128rfa1.a(uip6.o)
                0x000000000000669c                uip_udpchksum
 .text.uip_init
                0x00000000000066a2       0x64 contiki-avr-atmega128rfa1.a(uip6.o)
                0x00000000000066a2                uip_init
 .text.remove_ext_hdr
                0x0000000000006706       0x6c contiki-avr-atmega128rfa1.a(uip6.o)
                0x0000000000006706                remove_ext_hdr
 .text.uip_udp_new
                0x0000000000006772       0xbc contiki-avr-atmega128rfa1.a(uip6.o)
                0x0000000000006772                uip_udp_new
 .text.uip_unlisten
                0x000000000000682e       0x34 contiki-avr-atmega128rfa1.a(uip6.o)
                0x000000000000682e                uip_unlisten
 .text.uip_process
                0x0000000000006862     0x1112 contiki-avr-atmega128rfa1.a(uip6.o)
                0x0000000000006862                uip_process
 .text.uip_htons
                0x0000000000007974        0x8 contiki-avr-atmega128rfa1.a(uip6.o)
                0x0000000000007974                uip_htons
 .text.uip_htonl
                0x000000000000797c        0x6 contiki-avr-atmega128rfa1.a(uip6.o)
                0x000000000000797c                uip_htonl
 .text.uip_ds6_nbr_rm
                0x0000000000007982       0x2e contiki-avr-atmega128rfa1.a(uip-ds6-nbr.o)
                0x0000000000007982                uip_ds6_nbr_rm
 .text.uip_ds6_neighbors_init
                0x00000000000079b0       0x10 contiki-avr-atmega128rfa1.a(uip-ds6-nbr.o)
                0x00000000000079b0                uip_ds6_neighbors_init
 .text.uip_ds6_nbr_add
                0x00000000000079c0       0x84 contiki-avr-atmega128rfa1.a(uip-ds6-nbr.o)
                0x00000000000079c0                uip_ds6_nbr_add
 .text.uip_ds6_nbr_get_ll
                0x0000000000007a44        0xe contiki-avr-atmega128rfa1.a(uip-ds6-nbr.o)
                0x0000000000007a44                uip_ds6_nbr_get_ll
 .text.uip_ds6_nbr_lookup
                0x0000000000007a52       0x56 contiki-avr-atmega128rfa1.a(uip-ds6-nbr.o)
                0x0000000000007a52                uip_ds6_nbr_lookup
 .text.uip_ds6_nbr_ll_lookup
                0x0000000000007aa8        0xe contiki-avr-atmega128rfa1.a(uip-ds6-nbr.o)
                0x0000000000007aa8                uip_ds6_nbr_ll_lookup
 .text.uip_ds6_nbr_ipaddr_from_lladdr
                0x0000000000007ab6        0x4 contiki-avr-atmega128rfa1.a(uip-ds6-nbr.o)
                0x0000000000007ab6                uip_ds6_nbr_ipaddr_from_lladdr
 .text.uip_ds6_nbr_lladdr_from_ipaddr
                0x0000000000007aba       0x12 contiki-avr-atmega128rfa1.a(uip-ds6-nbr.o)
                0x0000000000007aba                uip_ds6_nbr_lladdr_from_ipaddr
 .text.uip_ds6_link_neighbor_callback
                0x0000000000007acc       0x48 contiki-avr-atmega128rfa1.a(uip-ds6-nbr.o)
                0x0000000000007acc                uip_ds6_link_neighbor_callback
 .text.uip_ds6_neighbor_periodic
                0x0000000000007b14      0x17a contiki-avr-atmega128rfa1.a(uip-ds6-nbr.o)
                0x0000000000007b14                uip_ds6_neighbor_periodic
 .text.na_input
                0x0000000000007c8e      0x28e contiki-avr-atmega128rfa1.a(uip-nd6.o)
 .text.ns_input
                0x0000000000007f1c      0x360 contiki-avr-atmega128rfa1.a(uip-nd6.o)
 .text.uip_nd6_ns_output
                0x000000000000827c      0x200 contiki-avr-atmega128rfa1.a(uip-nd6.o)
                0x000000000000827c                uip_nd6_ns_output
 .text.uip_nd6_init
                0x000000000000847c       0x10 contiki-avr-atmega128rfa1.a(uip-nd6.o)
                0x000000000000847c                uip_nd6_init
 .text.sicslowpan_init
                0x000000000000848c       0x1e contiki-avr-atmega128rfa1.a(sicslowpan.o)
                0x000000000000848c                sicslowpan_init
 .text.set_packet_attrs
                0x00000000000084aa       0x52 contiki-avr-atmega128rfa1.a(sicslowpan.o)
 .text.compress_addr_64
                0x00000000000084fc       0xcc contiki-avr-atmega128rfa1.a(sicslowpan.o)
 .text.addr_context_lookup_by_prefix
                0x00000000000085c8       0x26 contiki-avr-atmega128rfa1.a(sicslowpan.o)
 .text.send_packet
                0x00000000000085ee       0x1e contiki-avr-atmega128rfa1.a(sicslowpan.o)
 .text.output   0x000000000000860c      0x856 contiki-avr-atmega128rfa1.a(sicslowpan.o)
 .text.packet_sent
                0x0000000000008e62       0x32 contiki-avr-atmega128rfa1.a(sicslowpan.o)
 .text.uncompress_addr
                0x0000000000008e94       0xe2 contiki-avr-atmega128rfa1.a(sicslowpan.o)
 .text.input    0x0000000000008f76      0x78c contiki-avr-atmega128rfa1.a(sicslowpan.o)
 .text.packet_timedout
                0x0000000000009702       0x1c contiki-avr-atmega128rfa1.a(uip-packetqueue)
 .text.uip_packetqueue_new
                0x000000000000971e        0x8 contiki-avr-atmega128rfa1.a(uip-packetqueue)
                0x000000000000971e                uip_packetqueue_new
 .text.uip_packetqueue_alloc
                0x0000000000009726       0x5c contiki-avr-atmega128rfa1.a(uip-packetqueue)
                0x0000000000009726                uip_packetqueue_alloc
 .text.uip_packetqueue_free
                0x0000000000009782       0x2c contiki-avr-atmega128rfa1.a(uip-packetqueue)
                0x0000000000009782                uip_packetqueue_free
 .text.uip_packetqueue_buf
                0x00000000000097ae       0x14 contiki-avr-atmega128rfa1.a(uip-packetqueue)
                0x00000000000097ae                uip_packetqueue_buf
 .text.uip_packetqueue_buflen
                0x00000000000097c2       0x1c contiki-avr-atmega128rfa1.a(uip-packetqueue)
                0x00000000000097c2                uip_packetqueue_buflen
 .text.uip_packetqueue_set_buflen
                0x00000000000097de       0x16 contiki-avr-atmega128rfa1.a(uip-packetqueue)
                0x00000000000097de                uip_packetqueue_set_buflen
 .text.uip_udp_packet_send
                0x00000000000097f4       0x42 contiki-avr-atmega128rfa1.a(uip-udp-packet.)
                0x00000000000097f4                uip_udp_packet_send
 .text.uip_udp_packet_sendto
                0x0000000000009836       0x8c contiki-avr-atmega128rfa1.a(uip-udp-packet.)
                0x0000000000009836                uip_udp_packet_sendto
 .text.start_periodic_tcp_timer
                0x00000000000098c2       0x16 contiki-avr-atmega128rfa1.a(tcpip.o)
 .text.tcpip_output
                0x00000000000098d8       0x12 contiki-avr-atmega128rfa1.a(tcpip.o)
                0x00000000000098d8                tcpip_output
 .text.tcpip_set_outputfunc
                0x00000000000098ea        0xa contiki-avr-atmega128rfa1.a(tcpip.o)
                0x00000000000098ea                tcpip_set_outputfunc
 .text.udp_new  0x00000000000098f4       0x26 contiki-avr-atmega128rfa1.a(tcpip.o)
                0x00000000000098f4                udp_new
 .text.tcpip_icmp6_call
                0x000000000000991a       0x2e contiki-avr-atmega128rfa1.a(tcpip.o)
                0x000000000000991a                tcpip_icmp6_call
 .text.tcpip_input
                0x0000000000009948       0x1c contiki-avr-atmega128rfa1.a(tcpip.o)
                0x0000000000009948                tcpip_input
 .text.tcpip_ipv6_output
                0x0000000000009964      0x274 contiki-avr-atmega128rfa1.a(tcpip.o)
                0x0000000000009964                tcpip_ipv6_output
 .text.process_thread_tcpip_process
                0x0000000000009bd8      0x218 contiki-avr-atmega128rfa1.a(tcpip.o)
 .text.tcpip_uipcall
                0x0000000000009df0       0x8a contiki-avr-atmega128rfa1.a(tcpip.o)
                0x0000000000009df0                tcpip_uipcall
 .text.uip_split_output
                0x0000000000009e7a       0xf4 contiki-avr-atmega128rfa1.a(uip-split.o)
                0x0000000000009e7a                uip_split_output
 .text.process_thread_simple_udp_process
                0x0000000000009f6e       0xe2 contiki-avr-atmega128rfa1.a(simple-udp.o)
 .text.simple_udp_register
                0x000000000000a050       0xba contiki-avr-atmega128rfa1.a(simple-udp.o)
                0x000000000000a050                simple_udp_register
 .text.uiplib_ip6addrconv
                0x000000000000a10a      0x136 contiki-avr-atmega128rfa1.a(uiplib.o)
                0x000000000000a10a                uiplib_ip6addrconv
 .text.uip_debug_ipaddr_print
                0x000000000000a240       0xe6 contiki-avr-atmega128rfa1.a(uip-debug.o)
                0x000000000000a240                uip_debug_ipaddr_print
 .text.rpl_verify_header
                0x000000000000a326       0xc6 contiki-avr-atmega128rfa1.a(rpl-ext-header.)
                0x000000000000a326                rpl_verify_header
 .text.rpl_update_header_empty
                0x000000000000a3ec      0x168 contiki-avr-atmega128rfa1.a(rpl-ext-header.)
                0x000000000000a3ec                rpl_update_header_empty
 .text.rpl_update_header_final
                0x000000000000a554       0xd4 contiki-avr-atmega128rfa1.a(rpl-ext-header.)
                0x000000000000a554                rpl_update_header_final
 .text.rpl_invert_header
                0x000000000000a628       0x86 contiki-avr-atmega128rfa1.a(rpl-ext-header.)
                0x000000000000a628                rpl_invert_header
 .text.rpl_insert_header
                0x000000000000a6ae       0x1a contiki-avr-atmega128rfa1.a(rpl-ext-header.)
                0x000000000000a6ae                rpl_insert_header
 .text.rpl_get_mode
                0x000000000000a6c8        0xa contiki-avr-atmega128rfa1.a(rpl.o)
                0x000000000000a6c8                rpl_get_mode
 .text.rpl_purge_routes
                0x000000000000a6d2       0xca contiki-avr-atmega128rfa1.a(rpl.o)
                0x000000000000a6d2                rpl_purge_routes
 .text.rpl_remove_routes
                0x000000000000a79c       0x2c contiki-avr-atmega128rfa1.a(rpl.o)
                0x000000000000a79c                rpl_remove_routes
 .text.rpl_remove_routes_by_nexthop
                0x000000000000a7c8       0x56 contiki-avr-atmega128rfa1.a(rpl.o)
                0x000000000000a7c8                rpl_remove_routes_by_nexthop
 .text.rpl_add_route
                0x000000000000a81e       0x46 contiki-avr-atmega128rfa1.a(rpl.o)
                0x000000000000a81e                rpl_add_route
 .text.rpl_link_neighbor_callback
                0x000000000000a864       0xb8 contiki-avr-atmega128rfa1.a(rpl.o)
                0x000000000000a864                rpl_link_neighbor_callback
 .text.rpl_ipv6_neighbor_callback
                0x000000000000a91c       0x28 contiki-avr-atmega128rfa1.a(rpl.o)
                0x000000000000a91c                rpl_ipv6_neighbor_callback
 .text.rpl_init
                0x000000000000a944       0x78 contiki-avr-atmega128rfa1.a(rpl.o)
                0x000000000000a944                rpl_init
 .text.reset    0x000000000000a9bc        0x2 contiki-avr-atmega128rfa1.a(rpl-mrhof.o)
 .text.update_metric_container
                0x000000000000a9be        0x6 contiki-avr-atmega128rfa1.a(rpl-mrhof.o)
 .text.calculate_rank
                0x000000000000a9c4       0x54 contiki-avr-atmega128rfa1.a(rpl-mrhof.o)
 .text.neighbor_link_callback
                0x000000000000aa18       0xae contiki-avr-atmega128rfa1.a(rpl-mrhof.o)
 .text.best_dag
                0x000000000000aac6       0x40 contiki-avr-atmega128rfa1.a(rpl-mrhof.o)
 .text.best_parent
                0x000000000000ab06       0xa6 contiki-avr-atmega128rfa1.a(rpl-mrhof.o)
 .text.lollipop_greater_than
                0x000000000000abac       0x48 contiki-avr-atmega128rfa1.a(rpl-dag.o)
 .text.rpl_set_preferred_parent
                0x000000000000abf4       0x46 contiki-avr-atmega128rfa1.a(rpl-dag.o)
 .text.set_ip_from_prefix
                0x000000000000ac3a       0x38 contiki-avr-atmega128rfa1.a(rpl-dag.o)
 .text.check_prefix
                0x000000000000ac72       0xb4 contiki-avr-atmega128rfa1.a(rpl-dag.o)
 .text.find_parent_any_dag_any_instance
                0x000000000000ad26       0x16 contiki-avr-atmega128rfa1.a(rpl-dag.o)
 .text.rpl_get_nbr
                0x000000000000ad3c       0x26 contiki-avr-atmega128rfa1.a(rpl-dag.o)
                0x000000000000ad3c                rpl_get_nbr
 .text.rpl_dag_init
                0x000000000000ad62       0x10 contiki-avr-atmega128rfa1.a(rpl-dag.o)
                0x000000000000ad62                rpl_dag_init
 .text.rpl_get_parent
                0x000000000000ad72        0xe contiki-avr-atmega128rfa1.a(rpl-dag.o)
                0x000000000000ad72                rpl_get_parent
 .text.rpl_get_parent_ipaddr
                0x000000000000ad80       0x12 contiki-avr-atmega128rfa1.a(rpl-dag.o)
                0x000000000000ad80                rpl_get_parent_ipaddr
 .text.rpl_set_prefix
                0x000000000000ad92       0xb4 contiki-avr-atmega128rfa1.a(rpl-dag.o)
                0x000000000000ad92                rpl_set_prefix
 .text.rpl_set_default_route
                0x000000000000ae46       0x7c contiki-avr-atmega128rfa1.a(rpl-dag.o)
                0x000000000000ae46                rpl_set_default_route
 .text.rpl_alloc_instance
                0x000000000000aec2       0x32 contiki-avr-atmega128rfa1.a(rpl-dag.o)
                0x000000000000aec2                rpl_alloc_instance
 .text.rpl_add_parent
                0x000000000000aef4       0x76 contiki-avr-atmega128rfa1.a(rpl-dag.o)
                0x000000000000aef4                rpl_add_parent
 .text.rpl_find_parent
                0x000000000000af6a       0x2a contiki-avr-atmega128rfa1.a(rpl-dag.o)
                0x000000000000af6a                rpl_find_parent
 .text.rpl_find_parent_any_dag
                0x000000000000af94       0x36 contiki-avr-atmega128rfa1.a(rpl-dag.o)
                0x000000000000af94                rpl_find_parent_any_dag
 .text.rpl_select_parent
                0x000000000000afca       0xb0 contiki-avr-atmega128rfa1.a(rpl-dag.o)
                0x000000000000afca                rpl_select_parent
 .text.rpl_select_dag
                0x000000000000b07a      0x248 contiki-avr-atmega128rfa1.a(rpl-dag.o)
                0x000000000000b07a                rpl_select_dag
 .text.rpl_nullify_parent
                0x000000000000b2c2       0x7a contiki-avr-atmega128rfa1.a(rpl-dag.o)
                0x000000000000b2c2                rpl_nullify_parent
 .text.rpl_remove_parent
                0x000000000000b33c       0x1c contiki-avr-atmega128rfa1.a(rpl-dag.o)
                0x000000000000b33c                rpl_remove_parent
 .text.nbr_callback
                0x000000000000b358        0x4 contiki-avr-atmega128rfa1.a(rpl-dag.o)
 .text.remove_parents.constprop.4
                0x000000000000b35c       0x46 contiki-avr-atmega128rfa1.a(rpl-dag.o)
 .text.rpl_move_parent
                0x000000000000b3a2       0x7c contiki-avr-atmega128rfa1.a(rpl-dag.o)
                0x000000000000b3a2                rpl_move_parent
 .text.rpl_get_any_dag
                0x000000000000b41e       0x1e contiki-avr-atmega128rfa1.a(rpl-dag.o)
                0x000000000000b41e                rpl_get_any_dag
 .text.rpl_get_instance
                0x000000000000b43c       0x1c contiki-avr-atmega128rfa1.a(rpl-dag.o)
                0x000000000000b43c                rpl_get_instance
 .text.rpl_repair_root
                0x000000000000b458       0x52 contiki-avr-atmega128rfa1.a(rpl-dag.o)
                0x000000000000b458                rpl_repair_root
 .text.rpl_alloc_dag
                0x000000000000b4aa       0x60 contiki-avr-atmega128rfa1.a(rpl-dag.o)
                0x000000000000b4aa                rpl_alloc_dag
 .text.rpl_find_of
                0x000000000000b50a       0x1a contiki-avr-atmega128rfa1.a(rpl-dag.o)
                0x000000000000b50a                rpl_find_of
 .text.rpl_join_instance
                0x000000000000b524      0x1e4 contiki-avr-atmega128rfa1.a(rpl-dag.o)
                0x000000000000b524                rpl_join_instance
 .text.rpl_local_repair
                0x000000000000b708       0xa6 contiki-avr-atmega128rfa1.a(rpl-dag.o)
                0x000000000000b708                rpl_local_repair
 .text.rpl_process_parent_event
                0x000000000000b7ae       0xd8 contiki-avr-atmega128rfa1.a(rpl-dag.o)
                0x000000000000b7ae                rpl_process_parent_event
 .text.rpl_add_dag
                0x000000000000b886      0x178 contiki-avr-atmega128rfa1.a(rpl-dag.o)
                0x000000000000b886                rpl_add_dag
 .text.rpl_recalculate_ranks
                0x000000000000b9fe       0x50 contiki-avr-atmega128rfa1.a(rpl-dag.o)
                0x000000000000b9fe                rpl_recalculate_ranks
 .text.rpl_process_dio
                0x000000000000ba4e      0x420 contiki-avr-atmega128rfa1.a(rpl-dag.o)
                0x000000000000ba4e                rpl_process_dio
 .text.rpl_lock_parent
                0x000000000000be6e        0xe contiki-avr-atmega128rfa1.a(rpl-dag.o)
                0x000000000000be6e                rpl_lock_parent
 .text.send_packet
                0x000000000000be7c        0xa contiki-avr-atmega128rfa1.a(nullmac.o)
 .text.packet_input
                0x000000000000be86        0xa contiki-avr-atmega128rfa1.a(nullmac.o)
 .text.on       0x000000000000be90        0xa contiki-avr-atmega128rfa1.a(nullmac.o)
 .text.off      0x000000000000be9a        0xa contiki-avr-atmega128rfa1.a(nullmac.o)
 .text.channel_check_interval
                0x000000000000bea4        0x6 contiki-avr-atmega128rfa1.a(nullmac.o)
 .text.init     0x000000000000beaa        0x2 contiki-avr-atmega128rfa1.a(nullmac.o)
 .text.parse    0x000000000000beac       0xd4 contiki-avr-atmega128rfa1.a(framer-802154.o)
 .text.create_frame.isra.0
                0x000000000000bf80      0x14c contiki-avr-atmega128rfa1.a(framer-802154.o)
 .text.create   0x000000000000c0cc        0x8 contiki-avr-atmega128rfa1.a(framer-802154.o)
 .text.hdr_length
                0x000000000000c0d4        0x8 contiki-avr-atmega128rfa1.a(framer-802154.o)
 .text.field_len
                0x000000000000c0dc       0x8e contiki-avr-atmega128rfa1.a(frame802154.o)
 .text.frame802154_hdrlen
                0x000000000000c16a       0x46 contiki-avr-atmega128rfa1.a(frame802154.o)
                0x000000000000c16a                frame802154_hdrlen
 .text.frame802154_create
                0x000000000000c1b0      0x1ac contiki-avr-atmega128rfa1.a(frame802154.o)
                0x000000000000c1b0                frame802154_create
 .text.frame802154_parse
                0x000000000000c35c      0x19c contiki-avr-atmega128rfa1.a(frame802154.o)
                0x000000000000c35c                frame802154_parse
 .text.framer_canonical_create_and_secure
                0x000000000000c4f8       0x34 contiki-avr-atmega128rfa1.a(framer.o)
                0x000000000000c4f8                framer_canonical_create_and_secure
 .text.queuebuf_init
                0x000000000000c52c       0x10 contiki-avr-atmega128rfa1.a(queuebuf.o)
                0x000000000000c52c                queuebuf_init
 .text.queuebuf_numfree
                0x000000000000c53c        0x8 contiki-avr-atmega128rfa1.a(queuebuf.o)
                0x000000000000c53c                queuebuf_numfree
 .text.queuebuf_new_from_packetbuf
                0x000000000000c544       0x66 contiki-avr-atmega128rfa1.a(queuebuf.o)
                0x000000000000c544                queuebuf_new_from_packetbuf
 .text.queuebuf_free
                0x000000000000c5aa       0x34 contiki-avr-atmega128rfa1.a(queuebuf.o)
                0x000000000000c5aa                queuebuf_free
 .text.queuebuf_to_packetbuf
                0x000000000000c5de       0x44 contiki-avr-atmega128rfa1.a(queuebuf.o)
                0x000000000000c5de                queuebuf_to_packetbuf
 .text.index_from_key
                0x000000000000c622       0x32 contiki-avr-atmega128rfa1.a(nbr-table.o)
 .text.nbr_set_bit
                0x000000000000c654       0x66 contiki-avr-atmega128rfa1.a(nbr-table.o)
 .text.index_from_lladdr
                0x000000000000c6ba       0x5a contiki-avr-atmega128rfa1.a(nbr-table.o)
 .text.key_from_item
                0x000000000000c714       0x48 contiki-avr-atmega128rfa1.a(nbr-table.o)
 .text.item_from_key
                0x000000000000c75c       0x3e contiki-avr-atmega128rfa1.a(nbr-table.o)
 .text.nbr_get_bit.constprop.0
                0x000000000000c79a       0x4a contiki-avr-atmega128rfa1.a(nbr-table.o)
 .text.nbr_table_register
                0x000000000000c7e4       0x40 contiki-avr-atmega128rfa1.a(nbr-table.o)
                0x000000000000c7e4                nbr_table_register
 .text.nbr_table_next
                0x000000000000c824       0x3e contiki-avr-atmega128rfa1.a(nbr-table.o)
                0x000000000000c824                nbr_table_next
 .text.nbr_table_head
                0x000000000000c862       0x44 contiki-avr-atmega128rfa1.a(nbr-table.o)
                0x000000000000c862                nbr_table_head
 .text.nbr_table_add_lladdr
                0x000000000000c8a6      0x1c0 contiki-avr-atmega128rfa1.a(nbr-table.o)
                0x000000000000c8a6                nbr_table_add_lladdr
 .text.nbr_table_get_from_lladdr
                0x000000000000ca66       0x5e contiki-avr-atmega128rfa1.a(nbr-table.o)
                0x000000000000ca66                nbr_table_get_from_lladdr
 .text.nbr_table_remove
                0x000000000000cac4       0x42 contiki-avr-atmega128rfa1.a(nbr-table.o)
                0x000000000000cac4                nbr_table_remove
 .text.nbr_table_lock
                0x000000000000cb06       0x10 contiki-avr-atmega128rfa1.a(nbr-table.o)
                0x000000000000cb06                nbr_table_lock
 .text.nbr_table_unlock
                0x000000000000cb16       0x10 contiki-avr-atmega128rfa1.a(nbr-table.o)
                0x000000000000cb16                nbr_table_unlock
 .text.nbr_table_get_lladdr
                0x000000000000cb26       0x12 contiki-avr-atmega128rfa1.a(nbr-table.o)
                0x000000000000cb26                nbr_table_get_lladdr
 .text.packetbuf_compact
                0x000000000000cb38       0x3e contiki-avr-atmega128rfa1.a(packetbuf.o)
                0x000000000000cb38                packetbuf_compact
 .text.packetbuf_copyto
                0x000000000000cb76       0x7a contiki-avr-atmega128rfa1.a(packetbuf.o)
                0x000000000000cb76                packetbuf_copyto
 .text.packetbuf_hdrreduce
                0x000000000000cbf0       0x3a contiki-avr-atmega128rfa1.a(packetbuf.o)
                0x000000000000cbf0                packetbuf_hdrreduce
 .text.packetbuf_set_datalen
                0x000000000000cc2a        0xa contiki-avr-atmega128rfa1.a(packetbuf.o)
                0x000000000000cc2a                packetbuf_set_datalen
 .text.packetbuf_dataptr
                0x000000000000cc34        0xe contiki-avr-atmega128rfa1.a(packetbuf.o)
                0x000000000000cc34                packetbuf_dataptr
 .text.packetbuf_hdrptr
                0x000000000000cc42        0xc contiki-avr-atmega128rfa1.a(packetbuf.o)
                0x000000000000cc42                packetbuf_hdrptr
 .text.packetbuf_datalen
                0x000000000000cc4e        0xa contiki-avr-atmega128rfa1.a(packetbuf.o)
                0x000000000000cc4e                packetbuf_datalen
 .text.packetbuf_hdrlen
                0x000000000000cc58       0x10 contiki-avr-atmega128rfa1.a(packetbuf.o)
                0x000000000000cc58                packetbuf_hdrlen
 .text.packetbuf_totlen
                0x000000000000cc68       0x16 contiki-avr-atmega128rfa1.a(packetbuf.o)
                0x000000000000cc68                packetbuf_totlen
 .text.packetbuf_hdralloc
                0x000000000000cc7e       0x3c contiki-avr-atmega128rfa1.a(packetbuf.o)
                0x000000000000cc7e                packetbuf_hdralloc
 .text.packetbuf_attr_clear
                0x000000000000ccba       0x28 contiki-avr-atmega128rfa1.a(packetbuf.o)
                0x000000000000ccba                packetbuf_attr_clear
 .text.packetbuf_clear
                0x000000000000cce2       0x26 contiki-avr-atmega128rfa1.a(packetbuf.o)
                0x000000000000cce2                packetbuf_clear
 .text.packetbuf_copyfrom
                0x000000000000cd08       0x5e contiki-avr-atmega128rfa1.a(packetbuf.o)
                0x000000000000cd08                packetbuf_copyfrom
 .text.packetbuf_attr_copyto
                0x000000000000cd66       0x22 contiki-avr-atmega128rfa1.a(packetbuf.o)
                0x000000000000cd66                packetbuf_attr_copyto
 .text.packetbuf_attr_copyfrom
                0x000000000000cd88       0x22 contiki-avr-atmega128rfa1.a(packetbuf.o)
                0x000000000000cd88                packetbuf_attr_copyfrom
 .text.packetbuf_set_attr
                0x000000000000cdaa       0x16 contiki-avr-atmega128rfa1.a(packetbuf.o)
                0x000000000000cdaa                packetbuf_set_attr
 .text.packetbuf_attr
                0x000000000000cdc0       0x12 contiki-avr-atmega128rfa1.a(packetbuf.o)
                0x000000000000cdc0                packetbuf_attr
 .text.packetbuf_set_addr
                0x000000000000cdd2       0x16 contiki-avr-atmega128rfa1.a(packetbuf.o)
                0x000000000000cdd2                packetbuf_set_addr
 .text.packetbuf_addr
                0x000000000000cde8        0xe contiki-avr-atmega128rfa1.a(packetbuf.o)
                0x000000000000cde8                packetbuf_addr
 .text.packetbuf_holds_broadcast
                0x000000000000cdf6        0xc contiki-avr-atmega128rfa1.a(packetbuf.o)
                0x000000000000cdf6                packetbuf_holds_broadcast
 .text.linkaddr_copy
                0x000000000000ce02       0x10 contiki-avr-atmega128rfa1.a(linkaddr.o)
                0x000000000000ce02                linkaddr_copy
 .text.linkaddr_cmp
                0x000000000000ce12       0x18 contiki-avr-atmega128rfa1.a(linkaddr.o)
                0x000000000000ce12                linkaddr_cmp
 .text.linkaddr_set_node_addr
                0x000000000000ce2a        0xa contiki-avr-atmega128rfa1.a(linkaddr.o)
                0x000000000000ce2a                linkaddr_set_node_addr
 .text.on       0x000000000000ce34        0xa contiki-avr-atmega128rfa1.a(sicslowmac.o)
 .text.channel_check_interval
                0x000000000000ce3e        0x6 contiki-avr-atmega128rfa1.a(sicslowmac.o)
 .text.send_packet
                0x000000000000ce44      0x11c contiki-avr-atmega128rfa1.a(sicslowmac.o)
 .text.send_list
                0x000000000000cf60       0x48 contiki-avr-atmega128rfa1.a(sicslowmac.o)
                0x000000000000cf60                send_list
 .text.input_packet
                0x000000000000cfa8       0xd8 contiki-avr-atmega128rfa1.a(sicslowmac.o)
 .text.init     0x000000000000d080       0x12 contiki-avr-atmega128rfa1.a(sicslowmac.o)
 .text.off      0x000000000000d092       0x18 contiki-avr-atmega128rfa1.a(sicslowmac.o)
 .text.__vector_32
                0x000000000000d0aa       0xee contiki-avr-atmega128rfa1.a(rtimer-arch.o)
                0x000000000000d0aa                __vector_32
 .text.rtimer_arch_init
                0x000000000000d198       0x34 contiki-avr-atmega128rfa1.a(rtimer-arch.o)
                0x000000000000d198                rtimer_arch_init
 .text.rtimer_arch_schedule
                0x000000000000d1cc       0x20 contiki-avr-atmega128rfa1.a(rtimer-arch.o)
                0x000000000000d1cc                rtimer_arch_schedule
 .text.__vector_13
                0x000000000000d1ec       0x14 contiki-avr-atmega128rfa1.a(rtimer-arch.o)
                0x000000000000d1ec                __vector_13
 .text.stimer_set
                0x000000000000d200       0x20 contiki-avr-atmega128rfa1.a(stimer.o)
                0x000000000000d200                stimer_set
 .text.stimer_expired
                0x000000000000d220       0x5c contiki-avr-atmega128rfa1.a(stimer.o)
                0x000000000000d220                stimer_expired
 .text.memb_init
                0x000000000000d27c       0x3c contiki-avr-atmega128rfa1.a(memb.o)
                0x000000000000d27c                memb_init
 .text.memb_alloc
                0x000000000000d2b8       0x4a contiki-avr-atmega128rfa1.a(memb.o)
                0x000000000000d2b8                memb_alloc
 .text.memb_free
                0x000000000000d302       0x4a contiki-avr-atmega128rfa1.a(memb.o)
                0x000000000000d302                memb_free
 .text.memb_inmemb
                0x000000000000d34c       0x3a contiki-avr-atmega128rfa1.a(memb.o)
                0x000000000000d34c                memb_inmemb
 .text.memb_numfree
                0x000000000000d386       0x34 contiki-avr-atmega128rfa1.a(memb.o)
                0x000000000000d386                memb_numfree
 .text.bootstrap
                0x000000000000d3ba        0x4 contiki-avr-atmega128rfa1.a(nullsec.o)
 .text.on_frame_created
                0x000000000000d3be        0x6 contiki-avr-atmega128rfa1.a(nullsec.o)
 .text.input    0x000000000000d3c4        0xa contiki-avr-atmega128rfa1.a(nullsec.o)
 .text.get_overhead
                0x000000000000d3ce        0x4 contiki-avr-atmega128rfa1.a(nullsec.o)
 .text.send     0x000000000000d3d2       0x2c contiki-avr-atmega128rfa1.a(nullsec.o)
 .text.echo_reply_input
                0x000000000000d3fe      0x15a contiki-avr-atmega128rfa1.a(uip-icmp6.o)
 .text.echo_request_input
                0x000000000000d558      0x14a contiki-avr-atmega128rfa1.a(uip-icmp6.o)
 .text.uip_icmp6_input
                0x000000000000d6a2       0x4e contiki-avr-atmega128rfa1.a(uip-icmp6.o)
                0x000000000000d6a2                uip_icmp6_input
 .text.uip_icmp6_register_input_handler
                0x000000000000d6f0        0xa contiki-avr-atmega128rfa1.a(uip-icmp6.o)
                0x000000000000d6f0                uip_icmp6_register_input_handler
 .text.uip_icmp6_error_output
                0x000000000000d6fa      0x1cc contiki-avr-atmega128rfa1.a(uip-icmp6.o)
                0x000000000000d6fa                uip_icmp6_error_output
 .text.uip_icmp6_send
                0x000000000000d8c6       0xb0 contiki-avr-atmega128rfa1.a(uip-icmp6.o)
                0x000000000000d8c6                uip_icmp6_send
 .text.uip_icmp6_init
                0x000000000000d976       0x10 contiki-avr-atmega128rfa1.a(uip-icmp6.o)
                0x000000000000d976                uip_icmp6_init
 .text.get32    0x000000000000d986       0x1c contiki-avr-atmega128rfa1.a(rpl-icmp6.o)
 .text.set32    0x000000000000d9a2       0x10 contiki-avr-atmega128rfa1.a(rpl-icmp6.o)
 .text.get16    0x000000000000d9b2       0x10 contiki-avr-atmega128rfa1.a(rpl-icmp6.o)
 .text.set16    0x000000000000d9c2        0xc contiki-avr-atmega128rfa1.a(rpl-icmp6.o)
 .text.dao_ack_input
                0x000000000000d9ce        0xa contiki-avr-atmega128rfa1.a(rpl-icmp6.o)
 .text.dio_input
                0x000000000000d9d8      0x354 contiki-avr-atmega128rfa1.a(rpl-icmp6.o)
 .text.dis_output
                0x000000000000dd2c       0x74 contiki-avr-atmega128rfa1.a(rpl-icmp6.o)
                0x000000000000dd2c                dis_output
 .text.dio_output
                0x000000000000dda0      0x316 contiki-avr-atmega128rfa1.a(rpl-icmp6.o)
                0x000000000000dda0                dio_output
 .text.dis_input
                0x000000000000e0b6       0x30 contiki-avr-atmega128rfa1.a(rpl-icmp6.o)
 .text.dao_output_target
                0x000000000000e0e6      0x11e contiki-avr-atmega128rfa1.a(rpl-icmp6.o)
                0x000000000000e0e6                dao_output_target
 .text.dao_output
                0x000000000000e204       0x88 contiki-avr-atmega128rfa1.a(rpl-icmp6.o)
                0x000000000000e204                dao_output
 .text.dao_ack_output
                0x000000000000e28c       0x36 contiki-avr-atmega128rfa1.a(rpl-icmp6.o)
                0x000000000000e28c                dao_ack_output
 .text.dao_input
                0x000000000000e2c2      0x35c contiki-avr-atmega128rfa1.a(rpl-icmp6.o)
 .text.rpl_icmp6_register_handlers
                0x000000000000e61e       0x20 contiki-avr-atmega128rfa1.a(rpl-icmp6.o)
                0x000000000000e61e                rpl_icmp6_register_handlers
 .text.new_dio_interval
                0x000000000000e63e       0x9c contiki-avr-atmega128rfa1.a(rpl-timers.o)
 .text.handle_periodic_timer
                0x000000000000e6da       0x46 contiki-avr-atmega128rfa1.a(rpl-timers.o)
 .text.set_dao_lifetime_timer
                0x000000000000e720       0x5a contiki-avr-atmega128rfa1.a(rpl-timers.o)
 .text.handle_dio_timer
                0x000000000000e77a       0xb4 contiki-avr-atmega128rfa1.a(rpl-timers.o)
 .text.schedule_dao
                0x000000000000e82e       0x80 contiki-avr-atmega128rfa1.a(rpl-timers.o)
 .text.handle_dao_timer
                0x000000000000e8ae       0x7e contiki-avr-atmega128rfa1.a(rpl-timers.o)
 .text.rpl_reset_periodic_timer
                0x000000000000e92c       0x3a contiki-avr-atmega128rfa1.a(rpl-timers.o)
                0x000000000000e92c                rpl_reset_periodic_timer
 .text.rpl_reset_dio_timer
                0x000000000000e966       0x20 contiki-avr-atmega128rfa1.a(rpl-timers.o)
                0x000000000000e966                rpl_reset_dio_timer
 .text.rpl_schedule_dao
                0x000000000000e986        0x8 contiki-avr-atmega128rfa1.a(rpl-timers.o)
                0x000000000000e986                rpl_schedule_dao
 .text.rpl_schedule_probing
                0x000000000000e98e       0x2a contiki-avr-atmega128rfa1.a(rpl-timers.o)
                0x000000000000e98e                rpl_schedule_probing
 .text.handle_probing_timer
                0x000000000000e9b8      0x184 contiki-avr-atmega128rfa1.a(rpl-timers.o)
 .text.libgcc.div
                0x000000000000eb3c       0x28 /usr/lib/gcc/avr/4.8.1/avr51/libgcc.a(_udivmodhi4.o)
                0x000000000000eb3c                __udivmodhi4
 .text.libgcc.div
                0x000000000000eb64       0x28 /usr/lib/gcc/avr/4.8.1/avr51/libgcc.a(_divmodhi4.o)
                0x000000000000eb64                __divmodhi4
                0x000000000000eb64                _div
 .text.libgcc.div
                0x000000000000eb8c       0x44 /usr/lib/gcc/avr/4.8.1/avr51/libgcc.a(_udivmodsi4.o)
                0x000000000000eb8c                __udivmodsi4
 .text.libgcc   0x000000000000ebd0        0xc /usr/lib/gcc/avr/4.8.1/avr51/libgcc.a(_tablejump.o)
                0x000000000000ebd0                __tablejump2__
                0x000000000000ebd4                __tablejump__
 .text.libgcc.builtins
                0x000000000000ebdc        0xe /usr/lib/gcc/avr/4.8.1/avr51/libgcc.a(_bswapsi2.o)
                0x000000000000ebdc                __bswapsi2
 .text.libgcc.mul
                0x000000000000ebea       0x1e /usr/lib/gcc/avr/4.8.1/avr51/libgcc.a(_umulhisi3.o)
                0x000000000000ebea                __umulhisi3
 .text.avr-libc
                0x000000000000ec08      0x24e /usr/lib/gcc/avr/4.8.1/../../../avr/lib/avr51/libc.a(malloc.o)
                0x000000000000ec08                malloc
                0x000000000000ed38                free
 .text.avr-libc
                0x000000000000ee56       0xb8 /usr/lib/gcc/avr/4.8.1/../../../avr/lib/avr51/libc.a(rand.o)
                0x000000000000eeec                rand_r
                0x000000000000eef0                rand
                0x000000000000eef8                srand
 .text.avr-libc
                0x000000000000ef0e       0x1a /usr/lib/gcc/avr/4.8.1/../../../avr/lib/avr51/libc.a(memcmp.o)
                0x000000000000ef0e                memcmp
 .text.avr-libc
                0x000000000000ef28       0x12 /usr/lib/gcc/avr/4.8.1/../../../avr/lib/avr51/libc.a(memcpy.o)
                0x000000000000ef28                memcpy
 .text.avr-libc
                0x000000000000ef3a       0x24 /usr/lib/gcc/avr/4.8.1/../../../avr/lib/avr51/libc.a(memmove.o)
                0x000000000000ef3a                memmove
 .text.avr-libc
                0x000000000000ef5e        0xe /usr/lib/gcc/avr/4.8.1/../../../avr/lib/avr51/libc.a(memset.o)
                0x000000000000ef5e                memset
 .text.avr-libc
                0x000000000000ef6c       0x20 /usr/lib/gcc/avr/4.8.1/../../../avr/lib/avr51/libc.a(fprintf.o)
                0x000000000000ef6c                fprintf
 .text.avr-libc
                0x000000000000ef8c       0x24 /usr/lib/gcc/avr/4.8.1/../../../avr/lib/avr51/libc.a(printf.o)
                0x000000000000ef8c                printf
 .text.avr-libc
                0x000000000000efb0       0x48 /usr/lib/gcc/avr/4.8.1/../../../avr/lib/avr51/libc.a(printf_p.o)
                0x000000000000efb0                printf_P
 .text.avr-libc
                0x000000000000eff8       0x5a /usr/lib/gcc/avr/4.8.1/../../../avr/lib/avr51/libc.a(puts.o)
                0x000000000000eff8                puts
 .text.avr-libc
                0x000000000000f052       0x5e /usr/lib/gcc/avr/4.8.1/../../../avr/lib/avr51/libc.a(sprintf.o)
                0x000000000000f052                sprintf
 .text.avr-libc
                0x000000000000f0b0       0x10 /usr/lib/gcc/avr/4.8.1/../../../avr/lib/avr51/libc.a(vprintf.o)
                0x000000000000f0b0                vprintf
 .text.avr-libc
                0x000000000000f0c0      0x3f6 /usr/lib/gcc/avr/4.8.1/../../../avr/lib/avr51/libc.a(vfprintf_std.o)
                0x000000000000f0c0                vfprintf
 .text.avr-libc
                0x000000000000f4b6       0x20 /usr/lib/gcc/avr/4.8.1/../../../avr/lib/avr51/libc.a(eerd_block_atmega128rfa1.o)
                0x000000000000f4b6                __eerd_block_m128rfa1
                0x000000000000f4ba                __eerd_blraw_m128rfa1
 .text.avr-libc
                0x000000000000f4d6       0x10 /usr/lib/gcc/avr/4.8.1/../../../avr/lib/avr51/libc.a(eerd_byte_atmega128rfa1.o)
                0x000000000000f4d6                __eerd_byte_m128rfa1
 .text.avr-libc
                0x000000000000f4e6        0xc /usr/lib/gcc/avr/4.8.1/../../../avr/lib/avr51/libc.a(eerd_word_atmega128rfa1.o)
                0x000000000000f4e6                __eerd_word_m128rfa1
 .text.avr-libc
                0x000000000000f4f2       0x14 /usr/lib/gcc/avr/4.8.1/../../../avr/lib/avr51/libc.a(eewr_block_atmega128rfa1.o)
                0x000000000000f4f2                __eewr_block_m128rfa1
 .text.avr-libc
                0x000000000000f506       0x1c /usr/lib/gcc/avr/4.8.1/../../../avr/lib/avr51/libc.a(eewr_byte_atmega128rfa1.o)
                0x000000000000f506                __eewr_byte_m128rfa1
                0x000000000000f508                __eewr_r18_m128rfa1
 .text.avr-libc
                0x000000000000f522        0xa /usr/lib/gcc/avr/4.8.1/../../../avr/lib/avr51/libc.a(eewr_word_atmega128rfa1.o)
                0x000000000000f522                __eewr_word_m128rfa1
 .text.avr-libc
                0x000000000000f52c       0x16 /usr/lib/gcc/avr/4.8.1/../../../avr/lib/avr51/libc.a(strnlen_P.o)
                0x000000000000f52c                strnlen_P
 .text.avr-libc
                0x000000000000f542       0x16 /usr/lib/gcc/avr/4.8.1/../../../avr/lib/avr51/libc.a(strnlen.o)
                0x000000000000f542                strnlen
 .text.avr-libc
                0x000000000000f558       0x64 /usr/lib/gcc/avr/4.8.1/../../../avr/lib/avr51/libc.a(fputc.o)
                0x000000000000f558                fputc
 .text.avr-libc
                0x000000000000f5bc       0xbc /usr/lib/gcc/avr/4.8.1/../../../avr/lib/avr51/libc.a(ultoa_invert.o)
                0x000000000000f5bc                __ultoa_invert
 .text.libgcc.div
                0x000000000000f678       0x2e /usr/lib/gcc/avr/4.8.1/avr51/libgcc.a(_divmodsi4.o)
                0x000000000000f678                __divmodsi4
 .text.libgcc.div
                0x000000000000f6a6       0x10 /usr/lib/gcc/avr/4.8.1/avr51/libgcc.a(_negsi2.o)
                0x000000000000f6a6                __negsi2
 .text.libgcc.mul
                0x000000000000f6b6       0x16 /usr/lib/gcc/avr/4.8.1/avr51/libgcc.a(_muluhisi3.o)
                0x000000000000f6b6                __muluhisi3
 .text.libgcc.mul
                0x000000000000f6cc       0x10 /usr/lib/gcc/avr/4.8.1/avr51/libgcc.a(_mulshisi3.o)
                0x000000000000f6cc                __mulshisi3
                0x000000000000f6d2                __mulohisi3
                0x000000000000f6dc                . = ALIGN (0x2)
 *(.fini9)
 .fini9         0x000000000000f6dc        0x0 /usr/lib/gcc/avr/4.8.1/avr51/libgcc.a(_exit.o)
                0x000000000000f6dc                exit
                0x000000000000f6dc                _exit
 *(.fini9)
 *(.fini8)
 *(.fini8)
 *(.fini7)
 *(.fini7)
 *(.fini6)
 *(.fini6)
 *(.fini5)
 *(.fini5)
 *(.fini4)
 *(.fini4)
 *(.fini3)
 *(.fini3)
 *(.fini2)
 *(.fini2)
 *(.fini1)
 *(.fini1)
 *(.fini0)
 .fini0         0x000000000000f6dc        0x4 /usr/lib/gcc/avr/4.8.1/avr51/libgcc.a(_exit.o)
 *(.fini0)
                0x000000000000f6e0                _etext = .

.data           0x0000000000800200      0x7ba load address 0x000000000000f6e0
                0x0000000000800200                PROVIDE (__data_start, .)
 *(.data)
 .data          0x0000000000800200        0x0 /usr/lib/gcc/avr/4.8.1/../../../avr/lib/avr51/crtm128rfa1.o
 .data          0x0000000000800200        0x0 sdds.co
 .data          0x0000000000800200        0x0 objs-128rfa1/sdds-DataSource.o
 .data          0x0000000000800200        0x0 objs-128rfa1/sdds-BuiltinTopic.o
 .data          0x0000000000800200        0x0 objs-128rfa1/sdds-sDDS.o
 .data          0x0000000000800200        0x0 objs-128rfa1/sdds-DataSink.o
 .data          0x0000000000800200        0x0 objs-128rfa1/sdds-Marshalling.o
 .data          0x0000000000800200        0x0 objs-128rfa1/sdds-NetBuffRef.o
 .data          0x0000000000800200        0x0 objs-128rfa1/sdds-TopicDB.o
 .data          0x0000000000800200        0x0 objs-128rfa1/sdds-Discovery.o
 .data          0x0000000000800200        0x0 objs-128rfa1/sdds-Msg.o
 .data          0x0000000000800200        0x0 objs-128rfa1/sdds-Locator.o
 .data          0x0000000000800200        0x0 objs-128rfa1/sdds-Management.o
 .data          0x0000000000800200        0x0 objs-128rfa1/sdds-Debug.o
 .data          0x0000000000800200        0x0 objs-128rfa1/sdds-SNPS.o
 .data          0x0000000000800200        0x0 objs-128rfa1/sdds-LocatorDB.o
 .data          0x0000000000800200        0x0 objs-128rfa1/sdds-Topic.o
 .data          0x0000000000800200        0x0 objs-128rfa1/sdds-contiki-NodeConfig.o
 .data          0x0000000000800200        0x0 objs-128rfa1/sdds-contiki-UDP.o
 .data          0x0000000000800200        0x0 objs-128rfa1/sdds-contiki-Log.o
 .data          0x0000000000800200        0x0 objs-128rfa1/sdds-contiki-Memory.o
 .data          0x0000000000800200        0x0 objs-128rfa1/sdds-contiki-Task.o
 .data          0x0000000000800200        0x0 objs-128rfa1/atmega_sdds_impl.o
 .data          0x0000000000800200        0x0 objs-128rfa1/alpha-ds.o
 .data          0x0000000000800200        0x0 objs-128rfa1/beta-ds.o
 .data          0x0000000000800200        0x0 contiki-avr-atmega128rfa1.a(contiki-main.o)
 .data          0x0000000000800200        0x0 contiki-avr-atmega128rfa1.a(params.o)
 .data          0x0000000000800200        0x0 contiki-avr-atmega128rfa1.a(clock.o)
 .data          0x0000000000800200        0x0 contiki-avr-atmega128rfa1.a(rs232.o)
 .data          0x0000000000800200        0x0 contiki-avr-atmega128rfa1.a(watchdog.o)
 .data          0x0000000000800200        0x0 contiki-avr-atmega128rfa1.a(random.o)
 .data          0x0000000000800200        0x0 contiki-avr-atmega128rfa1.a(rf230bb.o)
 .data          0x0000000000800200        0x0 contiki-avr-atmega128rfa1.a(halbb.o)
 .data          0x0000000000800200        0x0 contiki-avr-atmega128rfa1.a(autostart.o)
 .data          0x0000000000800200        0x0 contiki-avr-atmega128rfa1.a(energest.o)
 .data          0x0000000000800200        0x0 contiki-avr-atmega128rfa1.a(ctimer.o)
 .data          0x0000000000800200        0x0 contiki-avr-atmega128rfa1.a(etimer.o)
 .data          0x0000000000800200        0x0 contiki-avr-atmega128rfa1.a(process.o)
 .data          0x0000000000800200        0x0 contiki-avr-atmega128rfa1.a(rtimer.o)
 .data          0x0000000000800200        0x0 contiki-avr-atmega128rfa1.a(timer.o)
 .data          0x0000000000800200        0x0 contiki-avr-atmega128rfa1.a(list.o)
 .data          0x0000000000800200        0x0 contiki-avr-atmega128rfa1.a(print-stats.o)
 .data          0x0000000000800200        0x0 contiki-avr-atmega128rfa1.a(uip-ds6.o)
 .data          0x0000000000800200        0x0 contiki-avr-atmega128rfa1.a(uip-ds6-route.o)
 .data          0x0000000000800200        0x0 contiki-avr-atmega128rfa1.a(uip6.o)
 .data          0x0000000000800200        0x0 contiki-avr-atmega128rfa1.a(uip-ds6-nbr.o)
 .data          0x0000000000800200        0x0 contiki-avr-atmega128rfa1.a(uip-nd6.o)
 .data          0x0000000000800200        0x0 contiki-avr-atmega128rfa1.a(sicslowpan.o)
 .data          0x0000000000800200        0x0 contiki-avr-atmega128rfa1.a(uip-packetqueue)
 .data          0x0000000000800200        0x0 contiki-avr-atmega128rfa1.a(uip-udp-packet.)
 .data          0x0000000000800200        0x0 contiki-avr-atmega128rfa1.a(tcpip.o)
 .data          0x0000000000800200        0x0 contiki-avr-atmega128rfa1.a(uip-split.o)
 .data          0x0000000000800200        0x0 contiki-avr-atmega128rfa1.a(simple-udp.o)
 .data          0x0000000000800200        0x0 contiki-avr-atmega128rfa1.a(uiplib.o)
 .data          0x0000000000800200        0x0 contiki-avr-atmega128rfa1.a(uip-debug.o)
 .data          0x0000000000800200        0x0 contiki-avr-atmega128rfa1.a(rpl-ext-header.)
 .data          0x0000000000800200        0x0 contiki-avr-atmega128rfa1.a(rpl.o)
 .data          0x0000000000800200        0x0 contiki-avr-atmega128rfa1.a(rpl-mrhof.o)
 .data          0x0000000000800200        0x0 contiki-avr-atmega128rfa1.a(rpl-dag.o)
 .data          0x0000000000800200        0x0 contiki-avr-atmega128rfa1.a(nullmac.o)
 .data          0x0000000000800200        0x0 contiki-avr-atmega128rfa1.a(framer-802154.o)
 .data          0x0000000000800200        0x0 contiki-avr-atmega128rfa1.a(frame802154.o)
 .data          0x0000000000800200        0x0 contiki-avr-atmega128rfa1.a(framer.o)
 .data          0x0000000000800200        0x0 contiki-avr-atmega128rfa1.a(queuebuf.o)
 .data          0x0000000000800200        0x0 contiki-avr-atmega128rfa1.a(nbr-table.o)
 .data          0x0000000000800200        0x0 contiki-avr-atmega128rfa1.a(packetbuf.o)
 .data          0x0000000000800200        0x0 contiki-avr-atmega128rfa1.a(linkaddr.o)
 .data          0x0000000000800200        0x0 contiki-avr-atmega128rfa1.a(sicslowmac.o)
 .data          0x0000000000800200        0x0 contiki-avr-atmega128rfa1.a(rtimer-arch.o)
 .data          0x0000000000800200        0x0 contiki-avr-atmega128rfa1.a(stimer.o)
 .data          0x0000000000800200        0x0 contiki-avr-atmega128rfa1.a(memb.o)
 .data          0x0000000000800200        0x0 contiki-avr-atmega128rfa1.a(nullsec.o)
 .data          0x0000000000800200        0x0 contiki-avr-atmega128rfa1.a(uip-icmp6.o)
 .data          0x0000000000800200        0x0 contiki-avr-atmega128rfa1.a(rpl-icmp6.o)
 .data          0x0000000000800200        0x0 contiki-avr-atmega128rfa1.a(rpl-timers.o)
 .data          0x0000000000800200        0x0 /usr/lib/gcc/avr/4.8.1/avr51/libgcc.a(_udivmodhi4.o)
 .data          0x0000000000800200        0x0 /usr/lib/gcc/avr/4.8.1/avr51/libgcc.a(_divmodhi4.o)
 .data          0x0000000000800200        0x0 /usr/lib/gcc/avr/4.8.1/avr51/libgcc.a(_udivmodsi4.o)
 .data          0x0000000000800200        0x0 /usr/lib/gcc/avr/4.8.1/avr51/libgcc.a(_exit.o)
 .data          0x0000000000800200        0x0 /usr/lib/gcc/avr/4.8.1/avr51/libgcc.a(_tablejump.o)
 .data          0x0000000000800200        0x0 /usr/lib/gcc/avr/4.8.1/avr51/libgcc.a(_copy_data.o)
 .data          0x0000000000800200        0x0 /usr/lib/gcc/avr/4.8.1/avr51/libgcc.a(_clear_bss.o)
 .data          0x0000000000800200        0x0 /usr/lib/gcc/avr/4.8.1/avr51/libgcc.a(_bswapsi2.o)
 .data          0x0000000000800200        0x0 /usr/lib/gcc/avr/4.8.1/avr51/libgcc.a(_umulhisi3.o)
 .data          0x0000000000800200        0x6 /usr/lib/gcc/avr/4.8.1/../../../avr/lib/avr51/libc.a(malloc.o)
                0x0000000000800200                __malloc_heap_end
                0x0000000000800202                __malloc_heap_start
                0x0000000000800204                __malloc_margin
 .data          0x0000000000800206        0x4 /usr/lib/gcc/avr/4.8.1/../../../avr/lib/avr51/libc.a(rand.o)
 .data          0x000000000080020a        0x0 /usr/lib/gcc/avr/4.8.1/../../../avr/lib/avr51/libc.a(abort.o)
 .data          0x000000000080020a        0x0 /usr/lib/gcc/avr/4.8.1/../../../avr/lib/avr51/libc.a(memcmp.o)
 .data          0x000000000080020a        0x0 /usr/lib/gcc/avr/4.8.1/../../../avr/lib/avr51/libc.a(memcpy.o)
 .data          0x000000000080020a        0x0 /usr/lib/gcc/avr/4.8.1/../../../avr/lib/avr51/libc.a(memmove.o)
 .data          0x000000000080020a        0x0 /usr/lib/gcc/avr/4.8.1/../../../avr/lib/avr51/libc.a(memset.o)
 .data          0x000000000080020a        0x0 /usr/lib/gcc/avr/4.8.1/../../../avr/lib/avr51/libc.a(fprintf.o)
 .data          0x000000000080020a        0x0 /usr/lib/gcc/avr/4.8.1/../../../avr/lib/avr51/libc.a(iob.o)
 .data          0x000000000080020a        0x0 /usr/lib/gcc/avr/4.8.1/../../../avr/lib/avr51/libc.a(printf.o)
 .data          0x000000000080020a        0x0 /usr/lib/gcc/avr/4.8.1/../../../avr/lib/avr51/libc.a(printf_p.o)
 .data          0x000000000080020a        0x0 /usr/lib/gcc/avr/4.8.1/../../../avr/lib/avr51/libc.a(puts.o)
 .data          0x000000000080020a        0x0 /usr/lib/gcc/avr/4.8.1/../../../avr/lib/avr51/libc.a(sprintf.o)
 .data          0x000000000080020a        0x0 /usr/lib/gcc/avr/4.8.1/../../../avr/lib/avr51/libc.a(vprintf.o)
 .data          0x000000000080020a        0x0 /usr/lib/gcc/avr/4.8.1/../../../avr/lib/avr51/libc.a(vfprintf_std.o)
 .data          0x000000000080020a        0x0 /usr/lib/gcc/avr/4.8.1/../../../avr/lib/avr51/libc.a(eerd_block_atmega128rfa1.o)
 .data          0x000000000080020a        0x0 /usr/lib/gcc/avr/4.8.1/../../../avr/lib/avr51/libc.a(eerd_byte_atmega128rfa1.o)
 .data          0x000000000080020a        0x0 /usr/lib/gcc/avr/4.8.1/../../../avr/lib/avr51/libc.a(eerd_word_atmega128rfa1.o)
 .data          0x000000000080020a        0x0 /usr/lib/gcc/avr/4.8.1/../../../avr/lib/avr51/libc.a(eewr_block_atmega128rfa1.o)
 .data          0x000000000080020a        0x0 /usr/lib/gcc/avr/4.8.1/../../../avr/lib/avr51/libc.a(eewr_byte_atmega128rfa1.o)
 .data          0x000000000080020a        0x0 /usr/lib/gcc/avr/4.8.1/../../../avr/lib/avr51/libc.a(eewr_word_atmega128rfa1.o)
 .data          0x000000000080020a        0x0 /usr/lib/gcc/avr/4.8.1/../../../avr/lib/avr51/libc.a(strnlen_P.o)
 .data          0x000000000080020a        0x0 /usr/lib/gcc/avr/4.8.1/../../../avr/lib/avr51/libc.a(strnlen.o)
 .data          0x000000000080020a        0x0 /usr/lib/gcc/avr/4.8.1/../../../avr/lib/avr51/libc.a(fputc.o)
 .data          0x000000000080020a        0x0 /usr/lib/gcc/avr/4.8.1/../../../avr/lib/avr51/libc.a(ultoa_invert.o)
 .data          0x000000000080020a        0x0 /usr/lib/gcc/avr/4.8.1/avr51/libgcc.a(_divmodsi4.o)
 .data          0x000000000080020a        0x0 /usr/lib/gcc/avr/4.8.1/avr51/libgcc.a(_negsi2.o)
 .data          0x000000000080020a        0x0 /usr/lib/gcc/avr/4.8.1/avr51/libgcc.a(_muluhisi3.o)
 .data          0x000000000080020a        0x0 /usr/lib/gcc/avr/4.8.1/avr51/libgcc.a(_mulshisi3.o)
 *(.data*)
 .data.messung1_contiki
                0x000000000080020a        0xa sdds.co
                0x000000000080020a                messung1_contiki
 .data.dataSource
                0x0000000000800214        0x2 objs-128rfa1/sdds-DataSource.o
                0x0000000000800214                dataSource
 .data.dataSink
                0x0000000000800216        0x2 objs-128rfa1/sdds-DataSink.o
                0x0000000000800216                dataSink
 .data.task_process
                0x0000000000800218        0xa objs-128rfa1/sdds-contiki-Task.o
                0x0000000000800218                task_process
 .data.rs232_stdout
                0x0000000000800222        0xe contiki-avr-atmega128rfa1.a(rs232.o)
 .data.rf230_process
                0x0000000000800230        0xa contiki-avr-atmega128rfa1.a(rf230bb.o)
                0x0000000000800230                rf230_process
 .data.ctimer_process
                0x000000000080023a        0xa contiki-avr-atmega128rfa1.a(ctimer.o)
                0x000000000080023a                ctimer_process
 .data.etimer_process
                0x0000000000800244        0xa contiki-avr-atmega128rfa1.a(etimer.o)
                0x0000000000800244                etimer_process
 .data.defaultroutermemb
                0x000000000080024e        0x8 contiki-avr-atmega128rfa1.a(uip-ds6-route.o)
 .data.routememb
                0x0000000000800256        0x8 contiki-avr-atmega128rfa1.a(uip-ds6-route.o)
 .data.neighborroutememb
                0x000000000080025e        0x8 contiki-avr-atmega128rfa1.a(uip-ds6-route.o)
 .data.nbr_routes_struct
                0x0000000000800266        0x8 contiki-avr-atmega128rfa1.a(uip-ds6-route.o)
 .data.ds6_neighbors
                0x000000000080026e        0x2 contiki-avr-atmega128rfa1.a(uip-ds6-nbr.o)
                0x000000000080026e                ds6_neighbors
 .data.ds6_neighbors_struct
                0x0000000000800270        0x8 contiki-avr-atmega128rfa1.a(uip-ds6-nbr.o)
 .data.na_input_handler
                0x0000000000800278        0x6 contiki-avr-atmega128rfa1.a(uip-nd6.o)
 .data.ns_input_handler
                0x000000000080027e        0x6 contiki-avr-atmega128rfa1.a(uip-nd6.o)
 .data.packets_memb
                0x0000000000800284        0x8 contiki-avr-atmega128rfa1.a(uip-packetqueue)
 .data.tcpip_process
                0x000000000080028c        0xa contiki-avr-atmega128rfa1.a(tcpip.o)
                0x000000000080028c                tcpip_process
 .data.simple_udp_process
                0x0000000000800296        0xa contiki-avr-atmega128rfa1.a(simple-udp.o)
                0x0000000000800296                simple_udp_process
 .data.rpl_mrhof
                0x00000000008002a0        0xe contiki-avr-atmega128rfa1.a(rpl-mrhof.o)
                0x00000000008002a0                rpl_mrhof
 .data.rpl_parents
                0x00000000008002ae        0x2 contiki-avr-atmega128rfa1.a(rpl-dag.o)
                0x00000000008002ae                rpl_parents
 .data.rpl_parents_struct
                0x00000000008002b0        0x8 contiki-avr-atmega128rfa1.a(rpl-dag.o)
 .data.buframmem
                0x00000000008002b8        0x8 contiki-avr-atmega128rfa1.a(queuebuf.o)
 .data.bufmem   0x00000000008002c0        0x8 contiki-avr-atmega128rfa1.a(queuebuf.o)
 .data.neighbor_addr_mem
                0x00000000008002c8        0x8 contiki-avr-atmega128rfa1.a(nbr-table.o)
 .data.echo_reply_handler
                0x00000000008002d0        0x6 contiki-avr-atmega128rfa1.a(uip-icmp6.o)
 .data.echo_request_handler
                0x00000000008002d6        0x6 contiki-avr-atmega128rfa1.a(uip-icmp6.o)
 .data.dao_ack_handler
                0x00000000008002dc        0x6 contiki-avr-atmega128rfa1.a(rpl-icmp6.o)
 .data.dao_handler
                0x00000000008002e2        0x6 contiki-avr-atmega128rfa1.a(rpl-icmp6.o)
 .data.dio_handler
                0x00000000008002e8        0x6 contiki-avr-atmega128rfa1.a(rpl-icmp6.o)
 .data.dis_handler
                0x00000000008002ee        0x6 contiki-avr-atmega128rfa1.a(rpl-icmp6.o)
 .data.dao_sequence
                0x00000000008002f4        0x1 contiki-avr-atmega128rfa1.a(rpl-icmp6.o)
 *(.rodata)
 *(.rodata*)
 .rodata.autostart_processes
                0x00000000008002f5        0x4 sdds.co
                0x00000000008002f5                autostart_processes
 .rodata.str1.1
                0x00000000008002f9       0x12 sdds.co
 .rodata.str1.1
                0x000000000080030b       0x24 objs-128rfa1/sdds-DataSource.o
 .rodata.__FUNCTION__.2646
                0x000000000080032f       0x18 objs-128rfa1/sdds-DataSource.o
 .rodata.__FUNCTION__.2634
                0x0000000000800347       0x11 objs-128rfa1/sdds-DataSource.o
 .rodata.str1.1
                0x0000000000800358      0x12a objs-128rfa1/sdds-BuiltinTopic.o
 .rodata.__FUNCTION__.2841
                0x0000000000800482       0x29 objs-128rfa1/sdds-BuiltinTopic.o
 .rodata.__FUNCTION__.2787
                0x00000000008004ab       0x28 objs-128rfa1/sdds-BuiltinTopic.o
 .rodata.__FUNCTION__.2737
                0x00000000008004d3       0x22 objs-128rfa1/sdds-BuiltinTopic.o
 .rodata.__FUNCTION__.2729
                0x00000000008004f5       0x22 objs-128rfa1/sdds-BuiltinTopic.o
 .rodata.__FUNCTION__.2683
                0x0000000000800517       0x28 objs-128rfa1/sdds-BuiltinTopic.o
 .rodata.str1.1
                0x000000000080053f       0x34 objs-128rfa1/sdds-DataSink.o
 .rodata.__FUNCTION__.2607
                0x0000000000800573       0x1a objs-128rfa1/sdds-DataSink.o
 .rodata.str1.1
                0x000000000080058d       0x9b objs-128rfa1/sdds-Discovery.o
 .rodata.__FUNCTION__.2672
                0x0000000000800628       0x20 objs-128rfa1/sdds-Discovery.o
 .rodata.__FUNCTION__.2723
                0x0000000000800648        0xf objs-128rfa1/sdds-Discovery.o
 .rodata.__FUNCTION__.2710
                0x0000000000800657       0x25 objs-128rfa1/sdds-Discovery.o
 .rodata.__FUNCTION__.2680
                0x000000000080067c       0x20 objs-128rfa1/sdds-Discovery.o
 .rodata.__FUNCTION__.2698
                0x000000000080069c       0x23 objs-128rfa1/sdds-Discovery.o
 .rodata.str1.1
                0x00000000008006bf       0x46 objs-128rfa1/sdds-SNPS.o
 .rodata.__FUNCTION__.2603
                0x0000000000800705        0xf objs-128rfa1/sdds-SNPS.o
 .rodata.str1.1
                0x0000000000800714       0x14 objs-128rfa1/sdds-LocatorDB.o
 .rodata.str1.1
                0x0000000000800728       0x32 objs-128rfa1/sdds-contiki-NodeConfig.o
 .rodata.__FUNCTION__.5158
                0x000000000080075a       0x15 objs-128rfa1/sdds-contiki-NodeConfig.o
 .rodata.str1.1
                0x000000000080076f      0x10c objs-128rfa1/sdds-contiki-UDP.o
                                        0x11e (size before relaxing)
 .rodata.__FUNCTION__.6040
                0x000000000080087b       0x16 objs-128rfa1/sdds-contiki-UDP.o
 .rodata.__FUNCTION__.6027
                0x0000000000800891       0x15 objs-128rfa1/sdds-contiki-UDP.o
 .rodata.__FUNCTION__.6013
                0x00000000008008a6        0xd objs-128rfa1/sdds-contiki-UDP.o
 .rodata.__FUNCTION__.6003
                0x00000000008008b3        0x8 objs-128rfa1/sdds-contiki-UDP.o
 .rodata.str1.1
                0x00000000008008bb       0x17 objs-128rfa1/sdds-contiki-Task.o
 .rodata.str1.1
                0x0000000000000000       0x18 objs-128rfa1/atmega_sdds_impl.o
 .rodata.str1.1
                0x00000000008008d2        0xc contiki-avr-atmega128rfa1.a(contiki-main.o)
 .rodata.str1.1
                0x00000000008008de        0xd contiki-avr-atmega128rfa1.a(rf230bb.o)
 .rodata.rf230_driver
                0x00000000008008eb       0x1c contiki-avr-atmega128rfa1.a(rf230bb.o)
                0x00000000008008eb                rf230_driver
 .rodata.str1.1
                0x0000000000800907        0xf contiki-avr-atmega128rfa1.a(ctimer.o)
 .rodata.str1.1
                0x0000000000800916        0xc contiki-avr-atmega128rfa1.a(etimer.o)
 .rodata.str1.1
                0x0000000000800922        0xb contiki-avr-atmega128rfa1.a(sicslowpan.o)
 .rodata.sicslowpan_driver
                0x000000000080092d        0x6 contiki-avr-atmega128rfa1.a(sicslowpan.o)
                0x000000000080092d                sicslowpan_driver
 .rodata.ttl_values
                0x0000000000800933        0x4 contiki-avr-atmega128rfa1.a(sicslowpan.o)
 .rodata.llprefix
                0x0000000000800937        0x2 contiki-avr-atmega128rfa1.a(sicslowpan.o)
                0x0000000000800937                llprefix
 .rodata.unc_mxconf
                0x0000000000800939        0x4 contiki-avr-atmega128rfa1.a(sicslowpan.o)
                0x0000000000800939                unc_mxconf
 .rodata.unc_ctxconf
                0x000000000080093d        0x4 contiki-avr-atmega128rfa1.a(sicslowpan.o)
                0x000000000080093d                unc_ctxconf
 .rodata.unc_llconf
                0x0000000000800941        0x4 contiki-avr-atmega128rfa1.a(sicslowpan.o)
                0x0000000000800941                unc_llconf
 .rodata.str1.1
                0x0000000000800945        0xd contiki-avr-atmega128rfa1.a(tcpip.o)
 .rodata.str1.1
                0x0000000000800952       0x13 contiki-avr-atmega128rfa1.a(simple-udp.o)
 .rodata.str1.1
                0x0000000000800965        0x8 contiki-avr-atmega128rfa1.a(nullmac.o)
 .rodata.nullmac_driver
                0x000000000080096d        0xe contiki-avr-atmega128rfa1.a(nullmac.o)
                0x000000000080096d                nullmac_driver
 .rodata.framer_802154
                0x000000000080097b        0x8 contiki-avr-atmega128rfa1.a(framer-802154.o)
                0x000000000080097b                framer_802154
 .rodata.linkaddr_null
                0x0000000000800983        0x8 contiki-avr-atmega128rfa1.a(linkaddr.o)
                0x0000000000800983                linkaddr_null
 .rodata.str1.1
                0x000000000080098b        0xb contiki-avr-atmega128rfa1.a(sicslowmac.o)
 .rodata.sicslowmac_driver
                0x0000000000800996       0x10 contiki-avr-atmega128rfa1.a(sicslowmac.o)
                0x0000000000800996                sicslowmac_driver
 .rodata.str1.1
                0x00000000008009a6        0x8 contiki-avr-atmega128rfa1.a(nullsec.o)
 .rodata.nullsec_driver
                0x00000000008009ae        0xc contiki-avr-atmega128rfa1.a(nullsec.o)
                0x00000000008009ae                nullsec_driver
 *(.gnu.linkonce.d*)
                0x00000000008009ba                . = ALIGN (0x2)
                0x00000000008009ba                _edata = .
                0x00000000008009ba                PROVIDE (__data_end, .)

.bss            0x00000000008009ba     0x2ab1
                0x00000000008009ba                PROVIDE (__bss_start, .)
 *(.bss)
 *(.bss*)
 .bss.g_wait_timer.3298
                0x00000000008009ba        0x8 sdds.co
 .bss.dsStruct  0x00000000008009c2       0x4c objs-128rfa1/sdds-DataSource.o
 .bss.topicByteAddr
                0x0000000000800a0e        0x6 objs-128rfa1/sdds-BuiltinTopic.o
 .bss.subPubByteAddr
                0x0000000000800a14        0x6 objs-128rfa1/sdds-BuiltinTopic.o
 .bss.participantByteAddr
                0x0000000000800a1a        0x6 objs-128rfa1/sdds-BuiltinTopic.o
 .bss.generalByteAddr
                0x0000000000800a20        0x6 objs-128rfa1/sdds-BuiltinTopic.o
 .bss.addr      0x0000000000800a26       0x17 objs-128rfa1/sdds-DataSink.o
 .bss.dsStruct  0x0000000000800a3d       0x15 objs-128rfa1/sdds-DataSink.o
 .bss.msg       0x0000000000800a52        0x2 objs-128rfa1/sdds-DataSink.o
 .bss.topicdb   0x0000000000800a54       0x9d objs-128rfa1/sdds-TopicDB.o
 .bss.sendPubTask
                0x0000000000800af1        0x2 objs-128rfa1/sdds-Discovery.o
 .bss.sendPartTask
                0x0000000000800af3        0x2 objs-128rfa1/sdds-Discovery.o
 .bss.recvTask  0x0000000000800af5        0x2 objs-128rfa1/sdds-Discovery.o
 .bss.participants
                0x0000000000800af7       0xc8 objs-128rfa1/sdds-Discovery.o
 .bss.db        0x0000000000800bbf       0x29 objs-128rfa1/sdds-LocatorDB.o
 .bss.g_incoming_buffer
                0x0000000000800be8        0xd objs-128rfa1/sdds-contiki-UDP.o
 .bss.logLvl    0x0000000000800bf5        0x2 objs-128rfa1/sdds-contiki-Log.o
 .bss.task_timer
                0x0000000000800bf7        0x8 objs-128rfa1/sdds-contiki-Task.o
 .bss.Task_list
                0x0000000000800bff        0x2 objs-128rfa1/sdds-contiki-Task.o
 .bss.rcount    0x0000000000800c01        0x1 contiki-avr-atmega128rfa1.a(clock.o)
 .bss.count     0x0000000000800c02        0x2 contiki-avr-atmega128rfa1.a(clock.o)
 .bss.stdout_rs232_port
                0x0000000000800c04        0x1 contiki-avr-atmega128rfa1.a(rs232.o)
 .bss.buffer    0x0000000000800c05       0x81 contiki-avr-atmega128rfa1.a(rf230bb.o)
 .bss.channel   0x0000000000800c86        0x1 contiki-avr-atmega128rfa1.a(rf230bb.o)
 .bss.initialized
                0x0000000000800c87        0x1 contiki-avr-atmega128rfa1.a(ctimer.o)
 .bss.ctimer_list_list
                0x0000000000800c88        0x2 contiki-avr-atmega128rfa1.a(ctimer.o)
 .bss.next_expiration
                0x0000000000800c8a        0x2 contiki-avr-atmega128rfa1.a(etimer.o)
 .bss.timerlist
                0x0000000000800c8c        0x2 contiki-avr-atmega128rfa1.a(etimer.o)
 .bss.snum.1783
                0x0000000000800c8e        0x1 contiki-avr-atmega128rfa1.a(process.o)
 .bss.p.1768    0x0000000000800c8f        0x2 contiki-avr-atmega128rfa1.a(process.o)
 .bss.receiver.1767
                0x0000000000800c91        0x2 contiki-avr-atmega128rfa1.a(process.o)
 .bss.data.1766
                0x0000000000800c93        0x2 contiki-avr-atmega128rfa1.a(process.o)
 .bss.ev.1765   0x0000000000800c95        0x1 contiki-avr-atmega128rfa1.a(process.o)
 .bss.poll_requested
                0x0000000000800c96        0x1 contiki-avr-atmega128rfa1.a(process.o)
 .bss.events    0x0000000000800c97       0xa0 contiki-avr-atmega128rfa1.a(process.o)
 .bss.fevent    0x0000000000800d37        0x1 contiki-avr-atmega128rfa1.a(process.o)
 .bss.nevents   0x0000000000800d38        0x1 contiki-avr-atmega128rfa1.a(process.o)
 .bss.lastevent
                0x0000000000800d39        0x1 contiki-avr-atmega128rfa1.a(process.o)
 .bss.process_current
                0x0000000000800d3a        0x2 contiki-avr-atmega128rfa1.a(process.o)
                0x0000000000800d3a                process_current
 .bss.process_list
                0x0000000000800d3c        0x2 contiki-avr-atmega128rfa1.a(process.o)
                0x0000000000800d3c                process_list
 .bss.next_rtimer
                0x0000000000800d3e        0x2 contiki-avr-atmega128rfa1.a(rtimer.o)
 .bss.locprefix
                0x0000000000800d40        0x2 contiki-avr-atmega128rfa1.a(uip-ds6.o)
 .bss.locmaddr  0x0000000000800d42        0x2 contiki-avr-atmega128rfa1.a(uip-ds6.o)
 .bss.locaddr   0x0000000000800d44        0x2 contiki-avr-atmega128rfa1.a(uip-ds6.o)
 .bss.loc_fipaddr
                0x0000000000800d46       0x10 contiki-avr-atmega128rfa1.a(uip-ds6.o)
 .bss.num_routes
                0x0000000000800d56        0x2 contiki-avr-atmega128rfa1.a(uip-ds6-route.o)
 .bss.notificationlist_list
                0x0000000000800d58        0x2 contiki-avr-atmega128rfa1.a(uip-ds6-route.o)
 .bss.defaultroutermemb_memb_mem
                0x0000000000800d5a       0x36 contiki-avr-atmega128rfa1.a(uip-ds6-route.o)
 .bss.defaultroutermemb_memb_count
                0x0000000000800d90        0x2 contiki-avr-atmega128rfa1.a(uip-ds6-route.o)
 .bss.defaultrouterlist_list
                0x0000000000800d92        0x2 contiki-avr-atmega128rfa1.a(uip-ds6-route.o)
 .bss.routememb_memb_mem
                0x0000000000800d94      0x244 contiki-avr-atmega128rfa1.a(uip-ds6-route.o)
 .bss.routememb_memb_count
                0x0000000000800fd8       0x14 contiki-avr-atmega128rfa1.a(uip-ds6-route.o)
 .bss.routelist_list
                0x0000000000800fec        0x2 contiki-avr-atmega128rfa1.a(uip-ds6-route.o)
 .bss.neighborroutememb_memb_mem
                0x0000000000800fee       0x50 contiki-avr-atmega128rfa1.a(uip-ds6-route.o)
 .bss.neighborroutememb_memb_count
                0x000000000080103e       0x14 contiki-avr-atmega128rfa1.a(uip-ds6-route.o)
 .bss._nbr_routes_mem
                0x0000000000801052       0x50 contiki-avr-atmega128rfa1.a(uip-ds6-route.o)
 .bss.tmp16     0x00000000008010a2        0x2 contiki-avr-atmega128rfa1.a(uip6.o)
 .bss.opt       0x00000000008010a4        0x1 contiki-avr-atmega128rfa1.a(uip6.o)
 .bss.iss       0x00000000008010a5        0x4 contiki-avr-atmega128rfa1.a(uip6.o)
 .bss.lastport  0x00000000008010a9        0x2 contiki-avr-atmega128rfa1.a(uip6.o)
 .bss.c         0x00000000008010ab        0x1 contiki-avr-atmega128rfa1.a(uip6.o)
 .bss.uip_ext_opt_offset
                0x00000000008010ac        0x1 contiki-avr-atmega128rfa1.a(uip6.o)
                0x00000000008010ac                uip_ext_opt_offset
 .bss.uip_ext_len
                0x00000000008010ad        0x1 contiki-avr-atmega128rfa1.a(uip6.o)
                0x00000000008010ad                uip_ext_len
 .bss.uip_ext_bitmap
                0x00000000008010ae        0x1 contiki-avr-atmega128rfa1.a(uip6.o)
                0x00000000008010ae                uip_ext_bitmap
 .bss._ds6_neighbors_mem
                0x00000000008010af      0x30c contiki-avr-atmega128rfa1.a(uip-ds6-nbr.o)
 .bss.addr      0x00000000008013bb        0x2 contiki-avr-atmega128rfa1.a(uip-nd6.o)
 .bss.defrt     0x00000000008013bd        0x2 contiki-avr-atmega128rfa1.a(uip-nd6.o)
 .bss.nbr       0x00000000008013bf        0x2 contiki-avr-atmega128rfa1.a(uip-nd6.o)
 .bss.nd6_opt_llao
                0x00000000008013c1        0x2 contiki-avr-atmega128rfa1.a(uip-nd6.o)
 .bss.nd6_opt_offset
                0x00000000008013c3        0x1 contiki-avr-atmega128rfa1.a(uip-nd6.o)
 .bss.hc06_ptr  0x00000000008013c4        0x2 contiki-avr-atmega128rfa1.a(sicslowpan.o)
 .bss.context   0x00000000008013c6        0x2 contiki-avr-atmega128rfa1.a(sicslowpan.o)
 .bss.addr_contexts
                0x00000000008013c8        0xa contiki-avr-atmega128rfa1.a(sicslowpan.o)
 .bss.callback  0x00000000008013d2        0x2 contiki-avr-atmega128rfa1.a(sicslowpan.o)
 .bss.last_rssi
                0x00000000008013d4        0x2 contiki-avr-atmega128rfa1.a(sicslowpan.o)
 .bss.reass_timer
                0x00000000008013d6        0x4 contiki-avr-atmega128rfa1.a(sicslowpan.o)
 .bss.reass_tag
                0x00000000008013da        0x2 contiki-avr-atmega128rfa1.a(sicslowpan.o)
 .bss.my_tag    0x00000000008013dc        0x2 contiki-avr-atmega128rfa1.a(sicslowpan.o)
 .bss.processed_ip_in_len
                0x00000000008013de        0x2 contiki-avr-atmega128rfa1.a(sicslowpan.o)
 .bss.sicslowpan_aligned_buf
                0x00000000008013e0       0x80 contiki-avr-atmega128rfa1.a(sicslowpan.o)
 .bss.sicslowpan_len
                0x0000000000801460        0x2 contiki-avr-atmega128rfa1.a(sicslowpan.o)
 .bss.last_tx_status
                0x0000000000801462        0x2 contiki-avr-atmega128rfa1.a(sicslowpan.o)
 .bss.uncomp_hdr_len
                0x0000000000801464        0x1 contiki-avr-atmega128rfa1.a(sicslowpan.o)
 .bss.packetbuf_payload_len
                0x0000000000801465        0x2 contiki-avr-atmega128rfa1.a(sicslowpan.o)
 .bss.packetbuf_hdr_len
                0x0000000000801467        0x1 contiki-avr-atmega128rfa1.a(sicslowpan.o)
 .bss.packetbuf_ptr
                0x0000000000801468        0x2 contiki-avr-atmega128rfa1.a(sicslowpan.o)
 .bss.packets_memb_memb_mem
                0x000000000080146a      0xa2c contiki-avr-atmega128rfa1.a(uip-packetqueue)
 .bss.packets_memb_memb_count
                0x0000000000801e96        0x2 contiki-avr-atmega128rfa1.a(uip-packetqueue)
 .bss.i.5411    0x0000000000801e98        0x1 contiki-avr-atmega128rfa1.a(tcpip.o)
 .bss.i.5367    0x0000000000801e99        0x1 contiki-avr-atmega128rfa1.a(tcpip.o)
 .bss.i.5423    0x0000000000801e9a        0x1 contiki-avr-atmega128rfa1.a(tcpip.o)
 .bss.outputfunc
                0x0000000000801e9b        0x2 contiki-avr-atmega128rfa1.a(tcpip.o)
 .bss.s         0x0000000000801e9d       0x12 contiki-avr-atmega128rfa1.a(tcpip.o)
 .bss.periodic  0x0000000000801eaf        0x8 contiki-avr-atmega128rfa1.a(tcpip.o)
 .bss.databuffer
                0x0000000000801eb7       0x80 contiki-avr-atmega128rfa1.a(simple-udp.o)
 .bss.started   0x0000000000801f37        0x1 contiki-avr-atmega128rfa1.a(simple-udp.o)
 .bss.mode      0x0000000000801f38        0x2 contiki-avr-atmega128rfa1.a(rpl.o)
 .bss._rpl_parents_mem
                0x0000000000801f3a       0xc8 contiki-avr-atmega128rfa1.a(rpl-dag.o)
 .bss.initialized
                0x0000000000802002        0x1 contiki-avr-atmega128rfa1.a(framer-802154.o)
 .bss.mac_dsn   0x0000000000802003        0x1 contiki-avr-atmega128rfa1.a(framer-802154.o)
 .bss.buframmem_memb_mem
                0x0000000000802004      0x580 contiki-avr-atmega128rfa1.a(queuebuf.o)
 .bss.buframmem_memb_count
                0x0000000000802584        0x8 contiki-avr-atmega128rfa1.a(queuebuf.o)
 .bss.bufmem_memb_mem
                0x000000000080258c       0x10 contiki-avr-atmega128rfa1.a(queuebuf.o)
 .bss.bufmem_memb_count
                0x000000000080259c        0x8 contiki-avr-atmega128rfa1.a(queuebuf.o)
 .bss.nbr_table_keys_list
                0x00000000008025a4        0x2 contiki-avr-atmega128rfa1.a(nbr-table.o)
 .bss.neighbor_addr_mem_memb_mem
                0x00000000008025a6       0xc8 contiki-avr-atmega128rfa1.a(nbr-table.o)
 .bss.neighbor_addr_mem_memb_count
                0x000000000080266e       0x14 contiki-avr-atmega128rfa1.a(nbr-table.o)
 .bss.num_tables
                0x0000000000802682        0x2 contiki-avr-atmega128rfa1.a(nbr-table.o)
 .bss.all_tables
                0x0000000000802684       0x10 contiki-avr-atmega128rfa1.a(nbr-table.o)
 .bss.locked_map
                0x0000000000802694       0x14 contiki-avr-atmega128rfa1.a(nbr-table.o)
 .bss.used_map  0x00000000008026a8       0x14 contiki-avr-atmega128rfa1.a(nbr-table.o)
 .bss.packetbufptr
                0x00000000008026bc        0x2 contiki-avr-atmega128rfa1.a(packetbuf.o)
 .bss.packetbuf_aligned
                0x00000000008026be       0xb0 contiki-avr-atmega128rfa1.a(packetbuf.o)
 .bss.hdrptr    0x000000000080276e        0x1 contiki-avr-atmega128rfa1.a(packetbuf.o)
 .bss.bufptr    0x000000000080276f        0x2 contiki-avr-atmega128rfa1.a(packetbuf.o)
 .bss.buflen    0x0000000000802771        0x2 contiki-avr-atmega128rfa1.a(packetbuf.o)
 .bss.mac_dsn   0x0000000000802773        0x1 contiki-avr-atmega128rfa1.a(sicslowmac.o)
 .bss.input_handler_list_list
                0x0000000000802774        0x2 contiki-avr-atmega128rfa1.a(uip-icmp6.o)
 .bss.echo_reply_callback_list_list
                0x0000000000802776        0x2 contiki-avr-atmega128rfa1.a(uip-icmp6.o)
 .bss.tmp_ipaddr
                0x0000000000802778       0x10 contiki-avr-atmega128rfa1.a(uip-icmp6.o)
 .bss.dio_send_ok
                0x0000000000802788        0x1 contiki-avr-atmega128rfa1.a(rpl-timers.o)
 .bss.next_dis  0x0000000000802789        0x2 contiki-avr-atmega128rfa1.a(rpl-timers.o)
 .bss.periodic_timer
                0x000000000080278b       0x10 contiki-avr-atmega128rfa1.a(rpl-timers.o)
 *(COMMON)
 COMMON         0x000000000080279b        0x2 objs-128rfa1/sdds-DataSource.o
                0x000000000080279b                BuiltinTopic_participantID
 COMMON         0x000000000080279d       0xfe objs-128rfa1/sdds-BuiltinTopic.o
                0x000000000080279d                g_DCPSTopic_reader
                0x000000000080279f                g_DCPSPublication_pool
                0x00000000008027bd                g_DCPSSubscription_reader
                0x00000000008027bf                g_DCPSSubscription_pool
                0x00000000008027e7                g_DCPSTopic_topic
                0x00000000008027e9                g_DCPSPublication_writer
                0x00000000008027eb                g_DCPSParticipant_pool
                0x00000000008027ff                g_DCPSSubscription_writer
                0x0000000000802801                g_DCPSPublication_reader
                0x0000000000802803                g_DCPSTopic_writer
                0x0000000000802805                g_DCPSParticipant_reader
                0x0000000000802807                g_DCPSParticipant_writer
                0x0000000000802809                g_DCPSTopic_pool
                0x0000000000802895                g_DCPSSubscription_topic
                0x0000000000802897                g_DCPSParticipant_topic
                0x0000000000802899                g_DCPSPublication_topic
 COMMON         0x000000000080289b       0x3a objs-128rfa1/sdds-contiki-UDP.o
                0x000000000080289b                g_builtin_topic_net_address
                0x000000000080289d                g_multi_connection
                0x00000000008028b9                g_connection
 COMMON         0x00000000008028d5       0x12 objs-128rfa1/atmega_sdds_impl.o
                0x00000000008028d5                g_Beta_topic
                0x00000000008028d7                g_Beta_writer
                0x00000000008028d9                g_Alpha_pool
                0x00000000008028de                g_Alpha_topic
                0x00000000008028e0                g_Beta_pool
                0x00000000008028e5                g_Alpha_writer
 COMMON         0x00000000008028e7        0x6 contiki-avr-atmega128rfa1.a(contiki-main.o)
                0x00000000008028e7                ledtimer
                0x00000000008028e9                clocktime
 COMMON         0x00000000008028ed        0xc contiki-avr-atmega128rfa1.a(clock.o)
                0x00000000008028ed                radioontime
                0x00000000008028f1                sleepseconds
                0x00000000008028f5                seconds
 COMMON         0x00000000008028f9        0x4 contiki-avr-atmega128rfa1.a(rs232.o)
                0x00000000008028f9                input_handler_1
                0x00000000008028fb                input_handler_0
 COMMON         0x00000000008028fd      0x198 contiki-avr-atmega128rfa1.a(rf230bb.o)
                0x00000000008028fd                rf230_last_correlation
                0x00000000008028fe                rf230_last_rssi
                0x00000000008028ff                RF230_receivefail
                0x0000000000802901                rf230_smallest_rssi
                0x0000000000802902                rf230_pending
                0x0000000000802903                rf230_ccawait
                0x0000000000802904                RF230_receivepackets
                0x0000000000802906                rf230_txendwait
                0x0000000000802907                rxframe_tail
                0x0000000000802908                rxframe_head
                0x0000000000802909                rxframe
                0x0000000000802a8f                rf230_wakewait
                0x0000000000802a90                RF230_sendpackets
                0x0000000000802a92                RF230_sendfail
                0x0000000000802a94                RF230_receive_on
 COMMON         0x0000000000802a95       0x56 contiki-avr-atmega128rfa1.a(energest.o)
                0x0000000000802a95                energest_total_time
                0x0000000000802ac5                energest_total_count
                0x0000000000802ac7                energest_current_mode
                0x0000000000802ad3                energest_current_time
 COMMON         0x0000000000802aeb      0x19d contiki-avr-atmega128rfa1.a(uip-ds6.o)
                0x0000000000802aeb                uip_ds6_timer_ra
                0x0000000000802af3                uip_ds6_if
                0x0000000000802c0e                uip_ds6_netif_addr_list_offset
                0x0000000000802c0f                uip_ds6_addr_size
                0x0000000000802c10                uip_ds6_prefix_list
                0x0000000000802c80                uip_ds6_timer_periodic
 COMMON         0x0000000000802c88      0x6d1 contiki-avr-atmega128rfa1.a(uip6.o)
                0x0000000000802c88                uip_len
                0x0000000000802c8a                uip_sappdata
                0x0000000000802c8c                uip_acc32
                0x0000000000802c90                uip_lladdr
                0x0000000000802c98                uip_aligned_buf
                0x0000000000803198                uip_flags
                0x0000000000803199                uip_next_hdr
                0x000000000080319b                uip_udp_conn
                0x000000000080319d                uip_appdata
                0x000000000080319f                uip_conn
                0x00000000008031a1                uip_conns
                0x0000000000803251                uip_icmp6_conns
                0x0000000000803255                uip_listenports
                0x000000000080325d                uip_slen
                0x000000000080325f                uip_udp_conns
 COMMON         0x0000000000803359        0x8 contiki-avr-atmega128rfa1.a(sicslowpan.o)
                0x0000000000803359                frag_sender
 COMMON         0x0000000000803361        0x2 contiki-avr-atmega128rfa1.a(tcpip.o)
                0x0000000000803361                tcpip_event
                0x0000000000803362                tcpip_icmp6_event
 COMMON         0x0000000000803363       0xc8 contiki-avr-atmega128rfa1.a(rpl-dag.o)
                0x0000000000803363                default_instance
                0x0000000000803365                instance_table
 COMMON         0x000000000080342b       0x2e contiki-avr-atmega128rfa1.a(packetbuf.o)
                0x000000000080342b                packetbuf_addrs
                0x000000000080343b                packetbuf_attrs
 COMMON         0x0000000000803459        0x8 contiki-avr-atmega128rfa1.a(linkaddr.o)
                0x0000000000803459                linkaddr_node_addr
 COMMON         0x0000000000803461        0x4 /usr/lib/gcc/avr/4.8.1/../../../avr/lib/avr51/libc.a(malloc.o)
                0x0000000000803461                __brkval
                0x0000000000803463                __flp
 COMMON         0x0000000000803465        0x6 /usr/lib/gcc/avr/4.8.1/../../../avr/lib/avr51/libc.a(iob.o)
                0x0000000000803465                __iob
                0x000000000080346b                PROVIDE (__bss_end, .)
                0x000000000000f6e0                __data_load_start = LOADADDR (.data)
                0x000000000000fe9a                __data_load_end = (__data_load_start + SIZEOF (.data))

.noinit         0x000000000080346b        0x0
                0x000000000080346b                PROVIDE (__noinit_start, .)
 *(.noinit*)
                0x000000000080346b                PROVIDE (__noinit_end, .)
                0x000000000080346b                _end = .
                0x000000000080346b                PROVIDE (__heap_start, .)

.eeprom         0x0000000000810000       0x29
 *(.eeprom*)
 .eeprom        0x0000000000810000       0x29 contiki-avr-atmega128rfa1.a(params.o)
                0x0000000000810000                eemem_txpower
                0x0000000000810001                eemem_panaddr
                0x0000000000810003                eemem_panid
                0x0000000000810005                eemem_channel
                0x0000000000810007                eemem_nodeid
                0x0000000000810009                eemem_domain_name
                0x0000000000810013                eemem_server_name
                0x0000000000810021                eemem_mac_address
                0x0000000000810029                __eeprom_end = .

.fuse           0x0000000000820000        0x3
 *(.fuse)
 .fuse          0x0000000000820000        0x3 contiki-avr-atmega128rfa1.a(contiki-main.o)
                0x0000000000820000                __fuse
 *(.lfuse)
 *(.hfuse)
 *(.efuse)

.lock
 *(.lock*)

.signature      0x0000000000840000        0x3
 *(.signature*)
 .signature     0x0000000000840000        0x3 contiki-avr-atmega128rfa1.a(contiki-main.o)
                0x0000000000840000                __signature

.user_signatures
 *(.user_signatures*)

.stab
 *(.stab)

.stabstr
 *(.stabstr)

.stab.excl
 *(.stab.excl)

.stab.exclstr
 *(.stab.exclstr)

.stab.index
 *(.stab.index)

.stab.indexstr
 *(.stab.indexstr)

.comment        0x0000000000000000       0x11
 *(.comment)
 .comment       0x0000000000000000       0x11 sdds.co
                                         0x12 (size before relaxing)
 .comment       0x0000000000000000       0x12 objs-128rfa1/sdds-DataSource.o
 .comment       0x0000000000000000       0x12 objs-128rfa1/sdds-BuiltinTopic.o
 .comment       0x0000000000000000       0x12 objs-128rfa1/sdds-sDDS.o
 .comment       0x0000000000000000       0x12 objs-128rfa1/sdds-DataSink.o
 .comment       0x0000000000000000       0x12 objs-128rfa1/sdds-Marshalling.o
 .comment       0x0000000000000000       0x12 objs-128rfa1/sdds-NetBuffRef.o
 .comment       0x0000000000000000       0x12 objs-128rfa1/sdds-TopicDB.o
 .comment       0x0000000000000000       0x12 objs-128rfa1/sdds-Discovery.o
 .comment       0x0000000000000000       0x12 objs-128rfa1/sdds-Msg.o
 .comment       0x0000000000000000       0x12 objs-128rfa1/sdds-Locator.o
 .comment       0x0000000000000000       0x12 objs-128rfa1/sdds-Management.o
 .comment       0x0000000000000000       0x12 objs-128rfa1/sdds-Debug.o
 .comment       0x0000000000000000       0x12 objs-128rfa1/sdds-SNPS.o
 .comment       0x0000000000000000       0x12 objs-128rfa1/sdds-LocatorDB.o
 .comment       0x0000000000000000       0x12 objs-128rfa1/sdds-Topic.o
 .comment       0x0000000000000000       0x12 objs-128rfa1/sdds-contiki-NodeConfig.o
 .comment       0x0000000000000000       0x12 objs-128rfa1/sdds-contiki-UDP.o
 .comment       0x0000000000000000       0x12 objs-128rfa1/sdds-contiki-Log.o
 .comment       0x0000000000000000       0x12 objs-128rfa1/sdds-contiki-Memory.o
 .comment       0x0000000000000000       0x12 objs-128rfa1/sdds-contiki-Task.o
 .comment       0x0000000000000000       0x12 objs-128rfa1/atmega_sdds_impl.o
 .comment       0x0000000000000000       0x12 objs-128rfa1/alpha-ds.o
 .comment       0x0000000000000000       0x12 objs-128rfa1/beta-ds.o
 .comment       0x0000000000000000       0x12 contiki-avr-atmega128rfa1.a(contiki-main.o)
 .comment       0x0000000000000000       0x12 contiki-avr-atmega128rfa1.a(params.o)
 .comment       0x0000000000000000       0x12 contiki-avr-atmega128rfa1.a(clock.o)
 .comment       0x0000000000000000       0x12 contiki-avr-atmega128rfa1.a(rs232.o)
 .comment       0x0000000000000000       0x12 contiki-avr-atmega128rfa1.a(watchdog.o)
 .comment       0x0000000000000000       0x12 contiki-avr-atmega128rfa1.a(random.o)
 .comment       0x0000000000000000       0x12 contiki-avr-atmega128rfa1.a(rf230bb.o)
 .comment       0x0000000000000000       0x12 contiki-avr-atmega128rfa1.a(halbb.o)
 .comment       0x0000000000000000       0x12 contiki-avr-atmega128rfa1.a(autostart.o)
 .comment       0x0000000000000000       0x12 contiki-avr-atmega128rfa1.a(energest.o)
 .comment       0x0000000000000000       0x12 contiki-avr-atmega128rfa1.a(ctimer.o)
 .comment       0x0000000000000000       0x12 contiki-avr-atmega128rfa1.a(etimer.o)
 .comment       0x0000000000000000       0x12 contiki-avr-atmega128rfa1.a(process.o)
 .comment       0x0000000000000000       0x12 contiki-avr-atmega128rfa1.a(rtimer.o)
 .comment       0x0000000000000000       0x12 contiki-avr-atmega128rfa1.a(timer.o)
 .comment       0x0000000000000000       0x12 contiki-avr-atmega128rfa1.a(list.o)
 .comment       0x0000000000000000       0x12 contiki-avr-atmega128rfa1.a(print-stats.o)
 .comment       0x0000000000000000       0x12 contiki-avr-atmega128rfa1.a(uip-ds6.o)
 .comment       0x0000000000000000       0x12 contiki-avr-atmega128rfa1.a(uip-ds6-route.o)
 .comment       0x0000000000000000       0x12 contiki-avr-atmega128rfa1.a(uip6.o)
 .comment       0x0000000000000000       0x12 contiki-avr-atmega128rfa1.a(uip-ds6-nbr.o)
 .comment       0x0000000000000000       0x12 contiki-avr-atmega128rfa1.a(uip-nd6.o)
 .comment       0x0000000000000000       0x12 contiki-avr-atmega128rfa1.a(sicslowpan.o)
 .comment       0x0000000000000000       0x12 contiki-avr-atmega128rfa1.a(uip-packetqueue)
 .comment       0x0000000000000000       0x12 contiki-avr-atmega128rfa1.a(uip-udp-packet.)
 .comment       0x0000000000000000       0x12 contiki-avr-atmega128rfa1.a(tcpip.o)
 .comment       0x0000000000000000       0x12 contiki-avr-atmega128rfa1.a(uip-split.o)
 .comment       0x0000000000000000       0x12 contiki-avr-atmega128rfa1.a(simple-udp.o)
 .comment       0x0000000000000000       0x12 contiki-avr-atmega128rfa1.a(uiplib.o)
 .comment       0x0000000000000000       0x12 contiki-avr-atmega128rfa1.a(uip-debug.o)
 .comment       0x0000000000000000       0x12 contiki-avr-atmega128rfa1.a(rpl-ext-header.)
 .comment       0x0000000000000000       0x12 contiki-avr-atmega128rfa1.a(rpl.o)
 .comment       0x0000000000000000       0x12 contiki-avr-atmega128rfa1.a(rpl-mrhof.o)
 .comment       0x0000000000000000       0x12 contiki-avr-atmega128rfa1.a(rpl-dag.o)
 .comment       0x0000000000000000       0x12 contiki-avr-atmega128rfa1.a(nullmac.o)
 .comment       0x0000000000000000       0x12 contiki-avr-atmega128rfa1.a(framer-802154.o)
 .comment       0x0000000000000000       0x12 contiki-avr-atmega128rfa1.a(frame802154.o)
 .comment       0x0000000000000000       0x12 contiki-avr-atmega128rfa1.a(framer.o)
 .comment       0x0000000000000000       0x12 contiki-avr-atmega128rfa1.a(queuebuf.o)
 .comment       0x0000000000000000       0x12 contiki-avr-atmega128rfa1.a(nbr-table.o)
 .comment       0x0000000000000000       0x12 contiki-avr-atmega128rfa1.a(packetbuf.o)
 .comment       0x0000000000000000       0x12 contiki-avr-atmega128rfa1.a(linkaddr.o)
 .comment       0x0000000000000000       0x12 contiki-avr-atmega128rfa1.a(sicslowmac.o)
 .comment       0x0000000000000000       0x12 contiki-avr-atmega128rfa1.a(rtimer-arch.o)
 .comment       0x0000000000000000       0x12 contiki-avr-atmega128rfa1.a(stimer.o)
 .comment       0x0000000000000000       0x12 contiki-avr-atmega128rfa1.a(memb.o)
 .comment       0x0000000000000000       0x12 contiki-avr-atmega128rfa1.a(nullsec.o)
 .comment       0x0000000000000000       0x12 contiki-avr-atmega128rfa1.a(uip-icmp6.o)
 .comment       0x0000000000000000       0x12 contiki-avr-atmega128rfa1.a(rpl-icmp6.o)
 .comment       0x0000000000000000       0x12 contiki-avr-atmega128rfa1.a(rpl-timers.o)
 .comment       0x0000000000000000       0x12 /usr/lib/gcc/avr/4.8.1/../../../avr/lib/avr51/libc.a(malloc.o)
 .comment       0x0000000000000000       0x12 /usr/lib/gcc/avr/4.8.1/../../../avr/lib/avr51/libc.a(rand.o)
 .comment       0x0000000000000000       0x12 /usr/lib/gcc/avr/4.8.1/../../../avr/lib/avr51/libc.a(fprintf.o)
 .comment       0x0000000000000000       0x12 /usr/lib/gcc/avr/4.8.1/../../../avr/lib/avr51/libc.a(iob.o)
 .comment       0x0000000000000000       0x12 /usr/lib/gcc/avr/4.8.1/../../../avr/lib/avr51/libc.a(printf.o)
 .comment       0x0000000000000000       0x12 /usr/lib/gcc/avr/4.8.1/../../../avr/lib/avr51/libc.a(printf_p.o)
 .comment       0x0000000000000000       0x12 /usr/lib/gcc/avr/4.8.1/../../../avr/lib/avr51/libc.a(puts.o)
 .comment       0x0000000000000000       0x12 /usr/lib/gcc/avr/4.8.1/../../../avr/lib/avr51/libc.a(sprintf.o)
 .comment       0x0000000000000000       0x12 /usr/lib/gcc/avr/4.8.1/../../../avr/lib/avr51/libc.a(vprintf.o)
 .comment       0x0000000000000000       0x12 /usr/lib/gcc/avr/4.8.1/../../../avr/lib/avr51/libc.a(vfprintf_std.o)
 .comment       0x0000000000000000       0x12 /usr/lib/gcc/avr/4.8.1/../../../avr/lib/avr51/libc.a(fputc.o)

.note.gnu.build-id
 *(.note.gnu.build-id)

.debug
 *(.debug)

.line
 *(.line)

.debug_srcinfo
 *(.debug_srcinfo)

.debug_sfnames
 *(.debug_sfnames)

.debug_aranges  0x0000000000000000     0x1ac0
 *(.debug_aranges)
 .debug_aranges
                0x0000000000000000       0x20 sdds.co
 .debug_aranges
                0x0000000000000020       0x58 objs-128rfa1/sdds-DataSource.o
 .debug_aranges
                0x0000000000000078       0xf8 objs-128rfa1/sdds-BuiltinTopic.o
 .debug_aranges
                0x0000000000000170       0x18 objs-128rfa1/sdds-sDDS.o
 .debug_aranges
                0x0000000000000188       0x80 objs-128rfa1/sdds-DataSink.o
 .debug_aranges
                0x0000000000000208       0xb8 objs-128rfa1/sdds-Marshalling.o
 .debug_aranges
                0x00000000000002c0       0x28 objs-128rfa1/sdds-NetBuffRef.o
 .debug_aranges
                0x00000000000002e8       0x48 objs-128rfa1/sdds-TopicDB.o
 .debug_aranges
                0x0000000000000330       0x38 objs-128rfa1/sdds-Discovery.o
 .debug_aranges
                0x0000000000000368       0x40 objs-128rfa1/sdds-Msg.o
 .debug_aranges
                0x00000000000003a8       0x48 objs-128rfa1/sdds-Locator.o
 .debug_aranges
                0x00000000000003f0       0x18 objs-128rfa1/sdds-Management.o
 .debug_aranges
                0x0000000000000408       0x20 objs-128rfa1/sdds-Debug.o
 .debug_aranges
                0x0000000000000428       0xb0 objs-128rfa1/sdds-SNPS.o
 .debug_aranges
                0x00000000000004d8       0x50 objs-128rfa1/sdds-LocatorDB.o
 .debug_aranges
                0x0000000000000528       0x40 objs-128rfa1/sdds-Topic.o
 .debug_aranges
                0x0000000000000568       0x20 objs-128rfa1/sdds-contiki-NodeConfig.o
 .debug_aranges
                0x0000000000000588       0x80 objs-128rfa1/sdds-contiki-UDP.o
 .debug_aranges
                0x0000000000000608       0x48 objs-128rfa1/sdds-contiki-Log.o
 .debug_aranges
                0x0000000000000650       0x30 objs-128rfa1/sdds-contiki-Memory.o
 .debug_aranges
                0x0000000000000680       0x50 objs-128rfa1/sdds-contiki-Task.o
 .debug_aranges
                0x00000000000006d0       0x28 objs-128rfa1/atmega_sdds_impl.o
 .debug_aranges
                0x00000000000006f8       0x40 objs-128rfa1/alpha-ds.o
 .debug_aranges
                0x0000000000000738       0x40 objs-128rfa1/beta-ds.o
 .debug_aranges
                0x0000000000000778       0x40 contiki-avr-atmega128rfa1.a(contiki-main.o)
 .debug_aranges
                0x00000000000007b8       0x40 contiki-avr-atmega128rfa1.a(params.o)
 .debug_aranges
                0x00000000000007f8       0x60 contiki-avr-atmega128rfa1.a(clock.o)
 .debug_aranges
                0x0000000000000858       0x60 contiki-avr-atmega128rfa1.a(rs232.o)
 .debug_aranges
                0x00000000000008b8       0x40 contiki-avr-atmega128rfa1.a(watchdog.o)
 .debug_aranges
                0x00000000000008f8       0x28 contiki-avr-atmega128rfa1.a(random.o)
 .debug_aranges
                0x0000000000000920      0x130 contiki-avr-atmega128rfa1.a(rf230bb.o)
 .debug_aranges
                0x0000000000000a50       0x80 contiki-avr-atmega128rfa1.a(halbb.o)
 .debug_aranges
                0x0000000000000ad0       0x28 contiki-avr-atmega128rfa1.a(autostart.o)
 .debug_aranges
                0x0000000000000af8       0x40 contiki-avr-atmega128rfa1.a(energest.o)
 .debug_aranges
                0x0000000000000b38       0x50 contiki-avr-atmega128rfa1.a(ctimer.o)
 .debug_aranges
                0x0000000000000b88       0x88 contiki-avr-atmega128rfa1.a(etimer.o)
 .debug_aranges
                0x0000000000000c10       0x88 contiki-avr-atmega128rfa1.a(process.o)
 .debug_aranges
                0x0000000000000c98       0x30 contiki-avr-atmega128rfa1.a(rtimer.o)
 .debug_aranges
                0x0000000000000cc8       0x40 contiki-avr-atmega128rfa1.a(timer.o)
 .debug_aranges
                0x0000000000000d08       0x78 contiki-avr-atmega128rfa1.a(list.o)
 .debug_aranges
                0x0000000000000d80       0x20 contiki-avr-atmega128rfa1.a(print-stats.o)
 .debug_aranges
                0x0000000000000da0       0xc8 contiki-avr-atmega128rfa1.a(uip-ds6.o)
 .debug_aranges
                0x0000000000000e68       0xb0 contiki-avr-atmega128rfa1.a(uip-ds6-route.o)
 .debug_aranges
                0x0000000000000f18       0xb0 contiki-avr-atmega128rfa1.a(uip6.o)
 .debug_aranges
                0x0000000000000fc8       0x80 contiki-avr-atmega128rfa1.a(uip-ds6-nbr.o)
 .debug_aranges
                0x0000000000001048       0x38 contiki-avr-atmega128rfa1.a(uip-nd6.o)
 .debug_aranges
                0x0000000000001080       0x78 contiki-avr-atmega128rfa1.a(sicslowpan.o)
 .debug_aranges
                0x00000000000010f8       0x50 contiki-avr-atmega128rfa1.a(uip-packetqueue)
 .debug_aranges
                0x0000000000001148       0x28 contiki-avr-atmega128rfa1.a(uip-udp-packet.)
 .debug_aranges
                0x0000000000001170       0xa8 contiki-avr-atmega128rfa1.a(tcpip.o)
 .debug_aranges
                0x0000000000001218       0x20 contiki-avr-atmega128rfa1.a(uip-split.o)
 .debug_aranges
                0x0000000000001238       0x40 contiki-avr-atmega128rfa1.a(simple-udp.o)
 .debug_aranges
                0x0000000000001278       0x28 contiki-avr-atmega128rfa1.a(uiplib.o)
 .debug_aranges
                0x00000000000012a0       0x28 contiki-avr-atmega128rfa1.a(uip-debug.o)
 .debug_aranges
                0x00000000000012c8       0x48 contiki-avr-atmega128rfa1.a(rpl-ext-header.)
 .debug_aranges
                0x0000000000001310       0x60 contiki-avr-atmega128rfa1.a(rpl.o)
 .debug_aranges
                0x0000000000001370       0x48 contiki-avr-atmega128rfa1.a(rpl-mrhof.o)
 .debug_aranges
                0x00000000000013b8      0x168 contiki-avr-atmega128rfa1.a(rpl-dag.o)
 .debug_aranges
                0x0000000000001520       0x48 contiki-avr-atmega128rfa1.a(nullmac.o)
 .debug_aranges
                0x0000000000001568       0x38 contiki-avr-atmega128rfa1.a(framer-802154.o)
 .debug_aranges
                0x00000000000015a0       0x38 contiki-avr-atmega128rfa1.a(frame802154.o)
 .debug_aranges
                0x00000000000015d8       0x20 contiki-avr-atmega128rfa1.a(framer.o)
 .debug_aranges
                0x00000000000015f8       0x78 contiki-avr-atmega128rfa1.a(queuebuf.o)
 .debug_aranges
                0x0000000000001670       0x90 contiki-avr-atmega128rfa1.a(nbr-table.o)
 .debug_aranges
                0x0000000000001700       0xd0 contiki-avr-atmega128rfa1.a(packetbuf.o)
 .debug_aranges
                0x00000000000017d0       0x30 contiki-avr-atmega128rfa1.a(linkaddr.o)
 .debug_aranges
                0x0000000000001800       0x50 contiki-avr-atmega128rfa1.a(sicslowmac.o)
 .debug_aranges
                0x0000000000001850       0x40 contiki-avr-atmega128rfa1.a(rtimer-arch.o)
 .debug_aranges
                0x0000000000001890       0x48 contiki-avr-atmega128rfa1.a(stimer.o)
 .debug_aranges
                0x00000000000018d8       0x40 contiki-avr-atmega128rfa1.a(memb.o)
 .debug_aranges
                0x0000000000001918       0x40 contiki-avr-atmega128rfa1.a(nullsec.o)
 .debug_aranges
                0x0000000000001958       0x60 contiki-avr-atmega128rfa1.a(uip-icmp6.o)
 .debug_aranges
                0x00000000000019b8       0x88 contiki-avr-atmega128rfa1.a(rpl-icmp6.o)
 .debug_aranges
                0x0000000000001a40       0x80 contiki-avr-atmega128rfa1.a(rpl-timers.o)

.debug_pubnames
 *(.debug_pubnames)

.debug_info     0x0000000000000000    0x2cb04
 *(.debug_info .gnu.linkonce.wi.*)
 .debug_info    0x0000000000000000      0x51d sdds.co
 .debug_info    0x000000000000051d      0xad8 objs-128rfa1/sdds-DataSource.o
 .debug_info    0x0000000000000ff5     0x201e objs-128rfa1/sdds-BuiltinTopic.o
 .debug_info    0x0000000000003013       0x6b objs-128rfa1/sdds-sDDS.o
 .debug_info    0x000000000000307e     0x100c objs-128rfa1/sdds-DataSink.o
 .debug_info    0x000000000000408a      0xa19 objs-128rfa1/sdds-Marshalling.o
 .debug_info    0x0000000000004aa3      0x485 objs-128rfa1/sdds-NetBuffRef.o
 .debug_info    0x0000000000004f28      0x691 objs-128rfa1/sdds-TopicDB.o
 .debug_info    0x00000000000055b9      0xe6b objs-128rfa1/sdds-Discovery.o
 .debug_info    0x0000000000006424      0x2ae objs-128rfa1/sdds-Msg.o
 .debug_info    0x00000000000066d2      0x3b1 objs-128rfa1/sdds-Locator.o
 .debug_info    0x0000000000006a83       0xa1 objs-128rfa1/sdds-Management.o
 .debug_info    0x0000000000006b24      0x130 objs-128rfa1/sdds-Debug.o
 .debug_info    0x0000000000006c54      0xfe4 objs-128rfa1/sdds-SNPS.o
 .debug_info    0x0000000000007c38      0x416 objs-128rfa1/sdds-LocatorDB.o
 .debug_info    0x000000000000804e      0x5f1 objs-128rfa1/sdds-Topic.o
 .debug_info    0x000000000000863f      0x3a0 objs-128rfa1/sdds-contiki-NodeConfig.o
 .debug_info    0x00000000000089df     0x13fd objs-128rfa1/sdds-contiki-UDP.o
 .debug_info    0x0000000000009ddc      0x3f5 objs-128rfa1/sdds-contiki-Log.o
 .debug_info    0x000000000000a1d1      0x159 objs-128rfa1/sdds-contiki-Memory.o
 .debug_info    0x000000000000a32a      0x7c1 objs-128rfa1/sdds-contiki-Task.o
 .debug_info    0x000000000000aaeb      0xc33 objs-128rfa1/atmega_sdds_impl.o
 .debug_info    0x000000000000b71e      0x7cc objs-128rfa1/alpha-ds.o
 .debug_info    0x000000000000beea      0x7cc objs-128rfa1/beta-ds.o
 .debug_info    0x000000000000c6b6     0x1298 contiki-avr-atmega128rfa1.a(contiki-main.o)
 .debug_info    0x000000000000d94e      0x673 contiki-avr-atmega128rfa1.a(params.o)
 .debug_info    0x000000000000dfc1      0x31f contiki-avr-atmega128rfa1.a(clock.o)
 .debug_info    0x000000000000e2e0      0x4bb contiki-avr-atmega128rfa1.a(rs232.o)
 .debug_info    0x000000000000e79b       0xe6 contiki-avr-atmega128rfa1.a(watchdog.o)
 .debug_info    0x000000000000e881       0xf7 contiki-avr-atmega128rfa1.a(random.o)
 .debug_info    0x000000000000e978     0x1a26 contiki-avr-atmega128rfa1.a(rf230bb.o)
 .debug_info    0x000000000001039e      0x3d2 contiki-avr-atmega128rfa1.a(halbb.o)
 .debug_info    0x0000000000010770      0x203 contiki-avr-atmega128rfa1.a(autostart.o)
 .debug_info    0x0000000000010973      0x297 contiki-avr-atmega128rfa1.a(energest.o)
 .debug_info    0x0000000000010c0a      0x7a7 contiki-avr-atmega128rfa1.a(ctimer.o)
 .debug_info    0x00000000000113b1      0x6e9 contiki-avr-atmega128rfa1.a(etimer.o)
 .debug_info    0x0000000000011a9a      0x75c contiki-avr-atmega128rfa1.a(process.o)
 .debug_info    0x00000000000121f6      0x269 contiki-avr-atmega128rfa1.a(rtimer.o)
 .debug_info    0x000000000001245f      0x1c3 contiki-avr-atmega128rfa1.a(timer.o)
 .debug_info    0x0000000000012622      0x3de contiki-avr-atmega128rfa1.a(list.o)
 .debug_info    0x0000000000012a00      0x1a8 contiki-avr-atmega128rfa1.a(print-stats.o)
 .debug_info    0x0000000000012ba8     0x10c9 contiki-avr-atmega128rfa1.a(uip-ds6.o)
 .debug_info    0x0000000000013c71     0x1927 contiki-avr-atmega128rfa1.a(uip-ds6-route.o)
 .debug_info    0x0000000000015598     0x1601 contiki-avr-atmega128rfa1.a(uip6.o)
 .debug_info    0x0000000000016b99     0x110e contiki-avr-atmega128rfa1.a(uip-ds6-nbr.o)
 .debug_info    0x0000000000017ca7      0xe97 contiki-avr-atmega128rfa1.a(uip-nd6.o)
 .debug_info    0x0000000000018b3e     0x1738 contiki-avr-atmega128rfa1.a(sicslowpan.o)
 .debug_info    0x000000000001a276      0x619 contiki-avr-atmega128rfa1.a(uip-packetqueue)
 .debug_info    0x000000000001a88f      0x440 contiki-avr-atmega128rfa1.a(uip-udp-packet.)
 .debug_info    0x000000000001accf     0x20f0 contiki-avr-atmega128rfa1.a(tcpip.o)
 .debug_info    0x000000000001cdbf      0x3aa contiki-avr-atmega128rfa1.a(uip-split.o)
 .debug_info    0x000000000001d169      0x8fd contiki-avr-atmega128rfa1.a(simple-udp.o)
 .debug_info    0x000000000001da66      0x2fd contiki-avr-atmega128rfa1.a(uiplib.o)
 .debug_info    0x000000000001dd63      0x224 contiki-avr-atmega128rfa1.a(uip-debug.o)
 .debug_info    0x000000000001df87      0xfcd contiki-avr-atmega128rfa1.a(rpl-ext-header.)
 .debug_info    0x000000000001ef54     0x118d contiki-avr-atmega128rfa1.a(rpl.o)
 .debug_info    0x00000000000200e1      0xd19 contiki-avr-atmega128rfa1.a(rpl-mrhof.o)
 .debug_info    0x0000000000020dfa     0x2d26 contiki-avr-atmega128rfa1.a(rpl-dag.o)
 .debug_info    0x0000000000023b20      0x475 contiki-avr-atmega128rfa1.a(nullmac.o)
 .debug_info    0x0000000000023f95      0x984 contiki-avr-atmega128rfa1.a(framer-802154.o)
 .debug_info    0x0000000000024919      0x5ed contiki-avr-atmega128rfa1.a(frame802154.o)
 .debug_info    0x0000000000024f06      0x21a contiki-avr-atmega128rfa1.a(framer.o)
 .debug_info    0x0000000000025120      0x94e contiki-avr-atmega128rfa1.a(queuebuf.o)
 .debug_info    0x0000000000025a6e      0xf77 contiki-avr-atmega128rfa1.a(nbr-table.o)
 .debug_info    0x00000000000269e5      0x860 contiki-avr-atmega128rfa1.a(packetbuf.o)
 .debug_info    0x0000000000027245      0x1fc contiki-avr-atmega128rfa1.a(linkaddr.o)
 .debug_info    0x0000000000027441      0xd82 contiki-avr-atmega128rfa1.a(sicslowmac.o)
 .debug_info    0x00000000000281c3      0x2cf contiki-avr-atmega128rfa1.a(rtimer-arch.o)
 .debug_info    0x0000000000028492      0x1e1 contiki-avr-atmega128rfa1.a(stimer.o)
 .debug_info    0x0000000000028673      0x259 contiki-avr-atmega128rfa1.a(memb.o)
 .debug_info    0x00000000000288cc      0x46c contiki-avr-atmega128rfa1.a(nullsec.o)
 .debug_info    0x0000000000028d38      0xb65 contiki-avr-atmega128rfa1.a(uip-icmp6.o)
 .debug_info    0x000000000002989d     0x1f06 contiki-avr-atmega128rfa1.a(rpl-icmp6.o)
 .debug_info    0x000000000002b7a3     0x1361 contiki-avr-atmega128rfa1.a(rpl-timers.o)

.debug_abbrev   0x0000000000000000     0xab46
 *(.debug_abbrev)
 .debug_abbrev  0x0000000000000000      0x202 sdds.co
 .debug_abbrev  0x0000000000000202      0x258 objs-128rfa1/sdds-DataSource.o
 .debug_abbrev  0x000000000000045a      0x3ab objs-128rfa1/sdds-BuiltinTopic.o
 .debug_abbrev  0x0000000000000805       0x26 objs-128rfa1/sdds-sDDS.o
 .debug_abbrev  0x000000000000082b      0x376 objs-128rfa1/sdds-DataSink.o
 .debug_abbrev  0x0000000000000ba1      0x170 objs-128rfa1/sdds-Marshalling.o
 .debug_abbrev  0x0000000000000d11      0x153 objs-128rfa1/sdds-NetBuffRef.o
 .debug_abbrev  0x0000000000000e64      0x19d objs-128rfa1/sdds-TopicDB.o
 .debug_abbrev  0x0000000000001001      0x326 objs-128rfa1/sdds-Discovery.o
 .debug_abbrev  0x0000000000001327      0x10d objs-128rfa1/sdds-Msg.o
 .debug_abbrev  0x0000000000001434      0x173 objs-128rfa1/sdds-Locator.o
 .debug_abbrev  0x00000000000015a7       0x44 objs-128rfa1/sdds-Management.o
 .debug_abbrev  0x00000000000015eb       0xe0 objs-128rfa1/sdds-Debug.o
 .debug_abbrev  0x00000000000016cb      0x2e9 objs-128rfa1/sdds-SNPS.o
 .debug_abbrev  0x00000000000019b4      0x186 objs-128rfa1/sdds-LocatorDB.o
 .debug_abbrev  0x0000000000001b3a      0x185 objs-128rfa1/sdds-Topic.o
 .debug_abbrev  0x0000000000001cbf      0x135 objs-128rfa1/sdds-contiki-NodeConfig.o
 .debug_abbrev  0x0000000000001df4      0x38a objs-128rfa1/sdds-contiki-UDP.o
 .debug_abbrev  0x000000000000217e      0x14b objs-128rfa1/sdds-contiki-Log.o
 .debug_abbrev  0x00000000000022c9       0xf5 objs-128rfa1/sdds-contiki-Memory.o
 .debug_abbrev  0x00000000000023be      0x290 objs-128rfa1/sdds-contiki-Task.o
 .debug_abbrev  0x000000000000264e      0x1f8 objs-128rfa1/atmega_sdds_impl.o
 .debug_abbrev  0x0000000000002846      0x214 objs-128rfa1/alpha-ds.o
 .debug_abbrev  0x0000000000002a5a      0x214 objs-128rfa1/beta-ds.o
 .debug_abbrev  0x0000000000002c6e      0x38c contiki-avr-atmega128rfa1.a(contiki-main.o)
 .debug_abbrev  0x0000000000002ffa      0x1a0 contiki-avr-atmega128rfa1.a(params.o)
 .debug_abbrev  0x000000000000319a      0x1dd contiki-avr-atmega128rfa1.a(clock.o)
 .debug_abbrev  0x0000000000003377      0x25c contiki-avr-atmega128rfa1.a(rs232.o)
 .debug_abbrev  0x00000000000035d3       0x51 contiki-avr-atmega128rfa1.a(watchdog.o)
 .debug_abbrev  0x0000000000003624       0xc6 contiki-avr-atmega128rfa1.a(random.o)
 .debug_abbrev  0x00000000000036ea      0x50f contiki-avr-atmega128rfa1.a(rf230bb.o)
 .debug_abbrev  0x0000000000003bf9      0x196 contiki-avr-atmega128rfa1.a(halbb.o)
 .debug_abbrev  0x0000000000003d8f      0x129 contiki-avr-atmega128rfa1.a(autostart.o)
 .debug_abbrev  0x0000000000003eb8      0x141 contiki-avr-atmega128rfa1.a(energest.o)
 .debug_abbrev  0x0000000000003ff9      0x267 contiki-avr-atmega128rfa1.a(ctimer.o)
 .debug_abbrev  0x0000000000004260      0x334 contiki-avr-atmega128rfa1.a(etimer.o)
 .debug_abbrev  0x0000000000004594      0x38f contiki-avr-atmega128rfa1.a(process.o)
 .debug_abbrev  0x0000000000004923      0x18d contiki-avr-atmega128rfa1.a(rtimer.o)
 .debug_abbrev  0x0000000000004ab0       0xfb contiki-avr-atmega128rfa1.a(timer.o)
 .debug_abbrev  0x0000000000004bab      0x1a6 contiki-avr-atmega128rfa1.a(list.o)
 .debug_abbrev  0x0000000000004d51      0x111 contiki-avr-atmega128rfa1.a(print-stats.o)
 .debug_abbrev  0x0000000000004e62      0x340 contiki-avr-atmega128rfa1.a(uip-ds6.o)
 .debug_abbrev  0x00000000000051a2      0x3f8 contiki-avr-atmega128rfa1.a(uip-ds6-route.o)
 .debug_abbrev  0x000000000000559a      0x44d contiki-avr-atmega128rfa1.a(uip6.o)
 .debug_abbrev  0x00000000000059e7      0x35e contiki-avr-atmega128rfa1.a(uip-ds6-nbr.o)
 .debug_abbrev  0x0000000000005d45      0x373 contiki-avr-atmega128rfa1.a(uip-nd6.o)
 .debug_abbrev  0x00000000000060b8      0x4ad contiki-avr-atmega128rfa1.a(sicslowpan.o)
 .debug_abbrev  0x0000000000006565      0x265 contiki-avr-atmega128rfa1.a(uip-packetqueue)
 .debug_abbrev  0x00000000000067ca      0x226 contiki-avr-atmega128rfa1.a(uip-udp-packet.)
 .debug_abbrev  0x00000000000069f0      0x576 contiki-avr-atmega128rfa1.a(tcpip.o)
 .debug_abbrev  0x0000000000006f66      0x196 contiki-avr-atmega128rfa1.a(uip-split.o)
 .debug_abbrev  0x00000000000070fc      0x289 contiki-avr-atmega128rfa1.a(simple-udp.o)
 .debug_abbrev  0x0000000000007385      0x12c contiki-avr-atmega128rfa1.a(uiplib.o)
 .debug_abbrev  0x00000000000074b1       0xf7 contiki-avr-atmega128rfa1.a(uip-debug.o)
 .debug_abbrev  0x00000000000075a8      0x31b contiki-avr-atmega128rfa1.a(rpl-ext-header.)
 .debug_abbrev  0x00000000000078c3      0x377 contiki-avr-atmega128rfa1.a(rpl.o)
 .debug_abbrev  0x0000000000007c3a      0x2e5 contiki-avr-atmega128rfa1.a(rpl-mrhof.o)
 .debug_abbrev  0x0000000000007f1f      0x599 contiki-avr-atmega128rfa1.a(rpl-dag.o)
 .debug_abbrev  0x00000000000084b8      0x18d contiki-avr-atmega128rfa1.a(nullmac.o)
 .debug_abbrev  0x0000000000008645      0x2cb contiki-avr-atmega128rfa1.a(framer-802154.o)
 .debug_abbrev  0x0000000000008910      0x1f1 contiki-avr-atmega128rfa1.a(frame802154.o)
 .debug_abbrev  0x0000000000008b01       0xef contiki-avr-atmega128rfa1.a(framer.o)
 .debug_abbrev  0x0000000000008bf0      0x2d2 contiki-avr-atmega128rfa1.a(queuebuf.o)
 .debug_abbrev  0x0000000000008ec2      0x397 contiki-avr-atmega128rfa1.a(nbr-table.o)
 .debug_abbrev  0x0000000000009259      0x300 contiki-avr-atmega128rfa1.a(packetbuf.o)
 .debug_abbrev  0x0000000000009559      0x13e contiki-avr-atmega128rfa1.a(linkaddr.o)
 .debug_abbrev  0x0000000000009697      0x36a contiki-avr-atmega128rfa1.a(sicslowmac.o)
 .debug_abbrev  0x0000000000009a01      0x15a contiki-avr-atmega128rfa1.a(rtimer-arch.o)
 .debug_abbrev  0x0000000000009b5b       0xd4 contiki-avr-atmega128rfa1.a(stimer.o)
 .debug_abbrev  0x0000000000009c2f      0x11c contiki-avr-atmega128rfa1.a(memb.o)
 .debug_abbrev  0x0000000000009d4b      0x1b7 contiki-avr-atmega128rfa1.a(nullsec.o)
 .debug_abbrev  0x0000000000009f02      0x3da contiki-avr-atmega128rfa1.a(uip-icmp6.o)
 .debug_abbrev  0x000000000000a2dc      0x45a contiki-avr-atmega128rfa1.a(rpl-icmp6.o)
 .debug_abbrev  0x000000000000a736      0x410 contiki-avr-atmega128rfa1.a(rpl-timers.o)

.debug_line     0x0000000000000000     0xa86f
 *(.debug_line .debug_line.* .debug_line_end)
 .debug_line    0x0000000000000000      0x1a9 sdds.co
 .debug_line    0x00000000000001a9      0x27c objs-128rfa1/sdds-DataSource.o
 .debug_line    0x0000000000000425      0x488 objs-128rfa1/sdds-BuiltinTopic.o
 .debug_line    0x00000000000008ad       0x1a objs-128rfa1/sdds-sDDS.o
 .debug_line    0x00000000000008c7      0x2fa objs-128rfa1/sdds-DataSink.o
 .debug_line    0x0000000000000bc1      0x23d objs-128rfa1/sdds-Marshalling.o
 .debug_line    0x0000000000000dfe      0x12c objs-128rfa1/sdds-NetBuffRef.o
 .debug_line    0x0000000000000f2a      0x1eb objs-128rfa1/sdds-TopicDB.o
 .debug_line    0x0000000000001115      0x1ff objs-128rfa1/sdds-Discovery.o
 .debug_line    0x0000000000001314      0x11c objs-128rfa1/sdds-Msg.o
 .debug_line    0x0000000000001430      0x152 objs-128rfa1/sdds-Locator.o
 .debug_line    0x0000000000001582       0x88 objs-128rfa1/sdds-Management.o
 .debug_line    0x000000000000160a       0x96 objs-128rfa1/sdds-Debug.o
 .debug_line    0x00000000000016a0      0x386 objs-128rfa1/sdds-SNPS.o
 .debug_line    0x0000000000001a26      0x164 objs-128rfa1/sdds-LocatorDB.o
 .debug_line    0x0000000000001b8a      0x13d objs-128rfa1/sdds-Topic.o
 .debug_line    0x0000000000001cc7      0x153 objs-128rfa1/sdds-contiki-NodeConfig.o
 .debug_line    0x0000000000001e1a      0x423 objs-128rfa1/sdds-contiki-UDP.o
 .debug_line    0x000000000000223d      0x144 objs-128rfa1/sdds-contiki-Log.o
 .debug_line    0x0000000000002381       0xd8 objs-128rfa1/sdds-contiki-Memory.o
 .debug_line    0x0000000000002459      0x25e objs-128rfa1/sdds-contiki-Task.o
 .debug_line    0x00000000000026b7      0x1cd objs-128rfa1/atmega_sdds_impl.o
 .debug_line    0x0000000000002884      0x1d2 objs-128rfa1/alpha-ds.o
 .debug_line    0x0000000000002a56      0x1d0 objs-128rfa1/beta-ds.o
 .debug_line    0x0000000000002c26      0x55a contiki-avr-atmega128rfa1.a(contiki-main.o)
 .debug_line    0x0000000000003180      0x192 contiki-avr-atmega128rfa1.a(params.o)
 .debug_line    0x0000000000003312      0x1da contiki-avr-atmega128rfa1.a(clock.o)
 .debug_line    0x00000000000034ec      0x18c contiki-avr-atmega128rfa1.a(rs232.o)
 .debug_line    0x0000000000003678       0xc4 contiki-avr-atmega128rfa1.a(watchdog.o)
 .debug_line    0x000000000000373c       0x8a contiki-avr-atmega128rfa1.a(random.o)
 .debug_line    0x00000000000037c6      0x626 contiki-avr-atmega128rfa1.a(rf230bb.o)
 .debug_line    0x0000000000003dec      0x194 contiki-avr-atmega128rfa1.a(halbb.o)
 .debug_line    0x0000000000003f80       0xa4 contiki-avr-atmega128rfa1.a(autostart.o)
 .debug_line    0x0000000000004024       0xf7 contiki-avr-atmega128rfa1.a(energest.o)
 .debug_line    0x000000000000411b      0x1e6 contiki-avr-atmega128rfa1.a(ctimer.o)
 .debug_line    0x0000000000004301      0x23e contiki-avr-atmega128rfa1.a(etimer.o)
 .debug_line    0x000000000000453f      0x1f8 contiki-avr-atmega128rfa1.a(process.o)
 .debug_line    0x0000000000004737       0xa0 contiki-avr-atmega128rfa1.a(rtimer.o)
 .debug_line    0x00000000000047d7      0x100 contiki-avr-atmega128rfa1.a(timer.o)
 .debug_line    0x00000000000048d7      0x16d contiki-avr-atmega128rfa1.a(list.o)
 .debug_line    0x0000000000004a44       0xf4 contiki-avr-atmega128rfa1.a(print-stats.o)
 .debug_line    0x0000000000004b38      0x48c contiki-avr-atmega128rfa1.a(uip-ds6.o)
 .debug_line    0x0000000000004fc4      0x49f contiki-avr-atmega128rfa1.a(uip-ds6-route.o)
 .debug_line    0x0000000000005463      0x729 contiki-avr-atmega128rfa1.a(uip6.o)
 .debug_line    0x0000000000005b8c      0x3aa contiki-avr-atmega128rfa1.a(uip-ds6-nbr.o)
 .debug_line    0x0000000000005f36      0x35c contiki-avr-atmega128rfa1.a(uip-nd6.o)
 .debug_line    0x0000000000006292      0x5e6 contiki-avr-atmega128rfa1.a(sicslowpan.o)
 .debug_line    0x0000000000006878      0x20d contiki-avr-atmega128rfa1.a(uip-packetqueue)
 .debug_line    0x0000000000006a85      0x103 contiki-avr-atmega128rfa1.a(uip-udp-packet.)
 .debug_line    0x0000000000006b88      0x487 contiki-avr-atmega128rfa1.a(tcpip.o)
 .debug_line    0x000000000000700f       0xcb contiki-avr-atmega128rfa1.a(uip-split.o)
 .debug_line    0x00000000000070da      0x185 contiki-avr-atmega128rfa1.a(simple-udp.o)
 .debug_line    0x000000000000725f      0x139 contiki-avr-atmega128rfa1.a(uiplib.o)
 .debug_line    0x0000000000007398       0xcd contiki-avr-atmega128rfa1.a(uip-debug.o)
 .debug_line    0x0000000000007465      0x357 contiki-avr-atmega128rfa1.a(rpl-ext-header.)
 .debug_line    0x00000000000077bc      0x388 contiki-avr-atmega128rfa1.a(rpl.o)
 .debug_line    0x0000000000007b44      0x2c1 contiki-avr-atmega128rfa1.a(rpl-mrhof.o)
 .debug_line    0x0000000000007e05      0x8b9 contiki-avr-atmega128rfa1.a(rpl-dag.o)
 .debug_line    0x00000000000086be      0x179 contiki-avr-atmega128rfa1.a(nullmac.o)
 .debug_line    0x0000000000008837      0x1c5 contiki-avr-atmega128rfa1.a(framer-802154.o)
 .debug_line    0x00000000000089fc      0x1b1 contiki-avr-atmega128rfa1.a(frame802154.o)
 .debug_line    0x0000000000008bad      0x10c contiki-avr-atmega128rfa1.a(framer.o)
 .debug_line    0x0000000000008cb9      0x1eb contiki-avr-atmega128rfa1.a(queuebuf.o)
 .debug_line    0x0000000000008ea4      0x2af contiki-avr-atmega128rfa1.a(nbr-table.o)
 .debug_line    0x0000000000009153      0x289 contiki-avr-atmega128rfa1.a(packetbuf.o)
 .debug_line    0x00000000000093dc       0xd8 contiki-avr-atmega128rfa1.a(linkaddr.o)
 .debug_line    0x00000000000094b4      0x29f contiki-avr-atmega128rfa1.a(sicslowmac.o)
 .debug_line    0x0000000000009753      0x1d7 contiki-avr-atmega128rfa1.a(rtimer-arch.o)
 .debug_line    0x000000000000992a       0xcf contiki-avr-atmega128rfa1.a(stimer.o)
 .debug_line    0x00000000000099f9       0xea contiki-avr-atmega128rfa1.a(memb.o)
 .debug_line    0x0000000000009ae3      0x173 contiki-avr-atmega128rfa1.a(nullsec.o)
 .debug_line    0x0000000000009c56      0x2df contiki-avr-atmega128rfa1.a(uip-icmp6.o)
 .debug_line    0x0000000000009f35      0x584 contiki-avr-atmega128rfa1.a(rpl-icmp6.o)
 .debug_line    0x000000000000a4b9      0x3b6 contiki-avr-atmega128rfa1.a(rpl-timers.o)

.debug_frame    0x0000000000000000     0x5484
 *(.debug_frame)
 .debug_frame   0x0000000000000000       0x40 sdds.co
 .debug_frame   0x0000000000000040      0x1c8 objs-128rfa1/sdds-DataSource.o
 .debug_frame   0x0000000000000208      0x4cc objs-128rfa1/sdds-BuiltinTopic.o
 .debug_frame   0x00000000000006d4      0x1e0 objs-128rfa1/sdds-DataSink.o
 .debug_frame   0x00000000000008b4      0x1d4 objs-128rfa1/sdds-Marshalling.o
 .debug_frame   0x0000000000000a88       0x50 objs-128rfa1/sdds-NetBuffRef.o
 .debug_frame   0x0000000000000ad8       0xa8 objs-128rfa1/sdds-TopicDB.o
 .debug_frame   0x0000000000000b80      0x110 objs-128rfa1/sdds-Discovery.o
 .debug_frame   0x0000000000000c90       0x70 objs-128rfa1/sdds-Msg.o
 .debug_frame   0x0000000000000d00       0xbc objs-128rfa1/sdds-Locator.o
 .debug_frame   0x0000000000000dbc       0x34 objs-128rfa1/sdds-Debug.o
 .debug_frame   0x0000000000000df0      0x37c objs-128rfa1/sdds-SNPS.o
 .debug_frame   0x000000000000116c       0xe4 objs-128rfa1/sdds-LocatorDB.o
 .debug_frame   0x0000000000001250       0x8c objs-128rfa1/sdds-Topic.o
 .debug_frame   0x00000000000012dc       0x78 objs-128rfa1/sdds-contiki-NodeConfig.o
 .debug_frame   0x0000000000001354      0x294 objs-128rfa1/sdds-contiki-UDP.o
 .debug_frame   0x00000000000015e8       0xec objs-128rfa1/sdds-contiki-Log.o
 .debug_frame   0x00000000000016d4       0x44 objs-128rfa1/sdds-contiki-Memory.o
 .debug_frame   0x0000000000001718       0xb8 objs-128rfa1/sdds-contiki-Task.o
 .debug_frame   0x00000000000017d0       0x44 objs-128rfa1/atmega_sdds_impl.o
 .debug_frame   0x0000000000001814       0xc8 objs-128rfa1/alpha-ds.o
 .debug_frame   0x00000000000018dc       0xc8 objs-128rfa1/beta-ds.o
 .debug_frame   0x00000000000019a4      0x198 contiki-avr-atmega128rfa1.a(contiki-main.o)
 .debug_frame   0x0000000000001b3c       0x98 contiki-avr-atmega128rfa1.a(params.o)
 .debug_frame   0x0000000000001bd4      0x11c contiki-avr-atmega128rfa1.a(clock.o)
 .debug_frame   0x0000000000001cf0      0x14c contiki-avr-atmega128rfa1.a(rs232.o)
 .debug_frame   0x0000000000001e3c       0x64 contiki-avr-atmega128rfa1.a(watchdog.o)
 .debug_frame   0x0000000000001ea0       0x34 contiki-avr-atmega128rfa1.a(random.o)
 .debug_frame   0x0000000000001ed4      0x2e4 contiki-avr-atmega128rfa1.a(rf230bb.o)
 .debug_frame   0x00000000000021b8      0x190 contiki-avr-atmega128rfa1.a(halbb.o)
 .debug_frame   0x0000000000002348       0x4c contiki-avr-atmega128rfa1.a(autostart.o)
 .debug_frame   0x0000000000002394       0x88 contiki-avr-atmega128rfa1.a(energest.o)
 .debug_frame   0x000000000000241c       0xf8 contiki-avr-atmega128rfa1.a(ctimer.o)
 .debug_frame   0x0000000000002514      0x150 contiki-avr-atmega128rfa1.a(etimer.o)
 .debug_frame   0x0000000000002664      0x148 contiki-avr-atmega128rfa1.a(process.o)
 .debug_frame   0x00000000000027ac       0x50 contiki-avr-atmega128rfa1.a(rtimer.o)
 .debug_frame   0x00000000000027fc       0x94 contiki-avr-atmega128rfa1.a(timer.o)
 .debug_frame   0x0000000000002890       0xfc contiki-avr-atmega128rfa1.a(list.o)
 .debug_frame   0x000000000000298c       0x84 contiki-avr-atmega128rfa1.a(print-stats.o)
 .debug_frame   0x0000000000002a10      0x37c contiki-avr-atmega128rfa1.a(uip-ds6.o)
 .debug_frame   0x0000000000002d8c      0x25c contiki-avr-atmega128rfa1.a(uip-ds6-route.o)
 .debug_frame   0x0000000000002fe8      0x1bc contiki-avr-atmega128rfa1.a(uip6.o)
 .debug_frame   0x00000000000031a4      0x1c0 contiki-avr-atmega128rfa1.a(uip-ds6-nbr.o)
 .debug_frame   0x0000000000003364       0xb0 contiki-avr-atmega128rfa1.a(uip-nd6.o)
 .debug_frame   0x0000000000003414      0x190 contiki-avr-atmega128rfa1.a(sicslowpan.o)
 .debug_frame   0x00000000000035a4       0xb8 contiki-avr-atmega128rfa1.a(uip-packetqueue)
 .debug_frame   0x000000000000365c       0x64 contiki-avr-atmega128rfa1.a(uip-udp-packet.)
 .debug_frame   0x00000000000036c0      0x1cc contiki-avr-atmega128rfa1.a(tcpip.o)
 .debug_frame   0x000000000000388c       0x38 contiki-avr-atmega128rfa1.a(uip-split.o)
 .debug_frame   0x00000000000038c4       0xf8 contiki-avr-atmega128rfa1.a(simple-udp.o)
 .debug_frame   0x00000000000039bc       0x68 contiki-avr-atmega128rfa1.a(uiplib.o)
 .debug_frame   0x0000000000003a24       0xf0 contiki-avr-atmega128rfa1.a(uip-debug.o)
 .debug_frame   0x0000000000003b14       0xc4 contiki-avr-atmega128rfa1.a(rpl-ext-header.)
 .debug_frame   0x0000000000003bd8      0x140 contiki-avr-atmega128rfa1.a(rpl.o)
 .debug_frame   0x0000000000003d18       0xe0 contiki-avr-atmega128rfa1.a(rpl-mrhof.o)
 .debug_frame   0x0000000000003df8      0x674 contiki-avr-atmega128rfa1.a(rpl-dag.o)
 .debug_frame   0x000000000000446c       0x74 contiki-avr-atmega128rfa1.a(nullmac.o)
 .debug_frame   0x00000000000044e0       0xa0 contiki-avr-atmega128rfa1.a(framer-802154.o)
 .debug_frame   0x0000000000004580       0xf0 contiki-avr-atmega128rfa1.a(frame802154.o)
 .debug_frame   0x0000000000004670       0x30 contiki-avr-atmega128rfa1.a(framer.o)
 .debug_frame   0x00000000000046a0      0x118 contiki-avr-atmega128rfa1.a(queuebuf.o)
 .debug_frame   0x00000000000047b8      0x1d4 contiki-avr-atmega128rfa1.a(nbr-table.o)
 .debug_frame   0x000000000000498c      0x1ec contiki-avr-atmega128rfa1.a(packetbuf.o)
 .debug_frame   0x0000000000004b78       0x44 contiki-avr-atmega128rfa1.a(linkaddr.o)
 .debug_frame   0x0000000000004bbc       0xf4 contiki-avr-atmega128rfa1.a(sicslowmac.o)
 .debug_frame   0x0000000000004cb0       0xd8 contiki-avr-atmega128rfa1.a(rtimer-arch.o)
 .debug_frame   0x0000000000004d88       0xe8 contiki-avr-atmega128rfa1.a(stimer.o)
 .debug_frame   0x0000000000004e70       0x70 contiki-avr-atmega128rfa1.a(memb.o)
 .debug_frame   0x0000000000004ee0       0x78 contiki-avr-atmega128rfa1.a(nullsec.o)
 .debug_frame   0x0000000000004f58      0x134 contiki-avr-atmega128rfa1.a(uip-icmp6.o)
 .debug_frame   0x000000000000508c      0x24c contiki-avr-atmega128rfa1.a(rpl-icmp6.o)
 .debug_frame   0x00000000000052d8      0x1ac contiki-avr-atmega128rfa1.a(rpl-timers.o)

.debug_str      0x0000000000000000     0x6f76
 *(.debug_str)
 .debug_str     0x0000000000000000      0x3d8 sdds.co
                                        0x46e (size before relaxing)
 .debug_str     0x00000000000003d8      0x3e0 objs-128rfa1/sdds-DataSource.o
                                        0x5f4 (size before relaxing)
 .debug_str     0x00000000000007b8      0x886 objs-128rfa1/sdds-BuiltinTopic.o
                                        0xd27 (size before relaxing)
 .debug_str     0x000000000000103e       0x12 objs-128rfa1/sdds-sDDS.o
                                        0x156 (size before relaxing)
 .debug_str     0x0000000000001050      0x242 objs-128rfa1/sdds-DataSink.o
                                        0x6ff (size before relaxing)
 .debug_str     0x0000000000001292      0x15d objs-128rfa1/sdds-Marshalling.o
                                        0x37a (size before relaxing)
 .debug_str     0x00000000000013ef       0x45 objs-128rfa1/sdds-NetBuffRef.o
                                        0x34b (size before relaxing)
 .debug_str     0x0000000000001434       0x7b objs-128rfa1/sdds-TopicDB.o
                                        0x407 (size before relaxing)
 .debug_str     0x00000000000014af      0x23c objs-128rfa1/sdds-Discovery.o
                                        0x7ff (size before relaxing)
 .debug_str     0x00000000000016eb       0x5c objs-128rfa1/sdds-Msg.o
                                        0x237 (size before relaxing)
 .debug_str     0x0000000000001747       0x82 objs-128rfa1/sdds-Locator.o
                                        0x250 (size before relaxing)
 .debug_str     0x00000000000017c9       0x18 objs-128rfa1/sdds-Management.o
                                        0x19b (size before relaxing)
 .debug_str     0x00000000000017e1       0x2a objs-128rfa1/sdds-Debug.o
                                        0x18c (size before relaxing)
 .debug_str     0x000000000000180b      0x143 objs-128rfa1/sdds-SNPS.o
                                        0x663 (size before relaxing)
 .debug_str     0x000000000000194e       0x9f objs-128rfa1/sdds-LocatorDB.o
                                        0x2cb (size before relaxing)
 .debug_str     0x00000000000019ed       0x45 objs-128rfa1/sdds-Topic.o
                                        0x346 (size before relaxing)
 .debug_str     0x0000000000001a32      0x146 objs-128rfa1/sdds-contiki-NodeConfig.o
                                        0x339 (size before relaxing)
 .debug_str     0x0000000000001b78      0x341 objs-128rfa1/sdds-contiki-UDP.o
                                        0xa16 (size before relaxing)
 .debug_str     0x0000000000001eb9       0x73 objs-128rfa1/sdds-contiki-Log.o
                                        0x325 (size before relaxing)
 .debug_str     0x0000000000001f2c       0x40 objs-128rfa1/sdds-contiki-Memory.o
                                        0x1ab (size before relaxing)
 .debug_str     0x0000000000001f6c      0x101 objs-128rfa1/sdds-contiki-Task.o
                                        0x4f9 (size before relaxing)
 .debug_str     0x000000000000206d      0x3f8 objs-128rfa1/atmega_sdds_impl.o
                                        0x8fa (size before relaxing)
 .debug_str     0x0000000000002465       0x62 objs-128rfa1/alpha-ds.o
                                        0x459 (size before relaxing)
 .debug_str     0x00000000000024c7       0x5e objs-128rfa1/beta-ds.o
                                        0x452 (size before relaxing)
 .debug_str     0x0000000000002525      0x53d contiki-avr-atmega128rfa1.a(contiki-main.o)
                                        0xabd (size before relaxing)
 .debug_str     0x0000000000002a62      0x187 contiki-avr-atmega128rfa1.a(params.o)
                                        0x489 (size before relaxing)
 .debug_str     0x0000000000002be9      0x117 contiki-avr-atmega128rfa1.a(clock.o)
                                        0x2af (size before relaxing)
 .debug_str     0x0000000000002d00       0xde contiki-avr-atmega128rfa1.a(rs232.o)
                                        0x3a0 (size before relaxing)
 .debug_str     0x0000000000002dde       0x5f contiki-avr-atmega128rfa1.a(watchdog.o)
                                        0x1be (size before relaxing)
 .debug_str     0x0000000000002e3d       0x43 contiki-avr-atmega128rfa1.a(random.o)
                                        0x198 (size before relaxing)
 .debug_str     0x0000000000002e80      0x8aa contiki-avr-atmega128rfa1.a(rf230bb.o)
                                        0xe44 (size before relaxing)
 .debug_str     0x000000000000372a       0xfe contiki-avr-atmega128rfa1.a(halbb.o)
                                        0x341 (size before relaxing)
 .debug_str     0x0000000000003828       0x4b contiki-avr-atmega128rfa1.a(autostart.o)
                                        0x209 (size before relaxing)
 .debug_str     0x0000000000003873       0xaf contiki-avr-atmega128rfa1.a(energest.o)
                                        0x393 (size before relaxing)
 .debug_str     0x0000000000003922      0x109 contiki-avr-atmega128rfa1.a(ctimer.o)
                                        0x477 (size before relaxing)
 .debug_str     0x0000000000003a2b       0xbc contiki-avr-atmega128rfa1.a(etimer.o)
                                        0x39a (size before relaxing)
 .debug_str     0x0000000000003ae7      0x128 contiki-avr-atmega128rfa1.a(process.o)
                                        0x32d (size before relaxing)
 .debug_str     0x0000000000003c0f       0xdb contiki-avr-atmega128rfa1.a(rtimer.o)
                                        0x37d (size before relaxing)
 .debug_str     0x0000000000003cea       0x2b contiki-avr-atmega128rfa1.a(timer.o)
                                        0x1e3 (size before relaxing)
 .debug_str     0x0000000000003d15       0x93 contiki-avr-atmega128rfa1.a(list.o)
                                        0x1a1 (size before relaxing)
 .debug_str     0x0000000000003da8       0x44 contiki-avr-atmega128rfa1.a(print-stats.o)
                                        0x312 (size before relaxing)
 .debug_str     0x0000000000003dec      0x345 contiki-avr-atmega128rfa1.a(uip-ds6.o)
                                        0x87a (size before relaxing)
 .debug_str     0x0000000000004131      0x456 contiki-avr-atmega128rfa1.a(uip-ds6-route.o)
                                        0xb00 (size before relaxing)
 .debug_str     0x0000000000004587      0x4f5 contiki-avr-atmega128rfa1.a(uip6.o)
                                        0xaa8 (size before relaxing)
 .debug_str     0x0000000000004a7c      0x1fb contiki-avr-atmega128rfa1.a(uip-ds6-nbr.o)
                                        0xaf1 (size before relaxing)
 .debug_str     0x0000000000004c77      0x18b contiki-avr-atmega128rfa1.a(uip-nd6.o)
                                        0x88b (size before relaxing)
 .debug_str     0x0000000000004e02      0x4e2 contiki-avr-atmega128rfa1.a(sicslowpan.o)
                                        0xca0 (size before relaxing)
 .debug_str     0x00000000000052e4       0xb4 contiki-avr-atmega128rfa1.a(uip-packetqueue)
                                        0x4c8 (size before relaxing)
 .debug_str     0x0000000000005398       0x7b contiki-avr-atmega128rfa1.a(uip-udp-packet.)
                                        0x2ec (size before relaxing)
 .debug_str     0x0000000000005413      0x3f2 contiki-avr-atmega128rfa1.a(tcpip.o)
                                        0xf07 (size before relaxing)
 .debug_str     0x0000000000005805       0x43 contiki-avr-atmega128rfa1.a(uip-split.o)
                                        0x2b0 (size before relaxing)
 .debug_str     0x0000000000005848       0xbf contiki-avr-atmega128rfa1.a(simple-udp.o)
                                        0x5a3 (size before relaxing)
 .debug_str     0x0000000000005907       0x67 contiki-avr-atmega128rfa1.a(uiplib.o)
                                        0x20e (size before relaxing)
 .debug_str     0x000000000000596e       0x49 contiki-avr-atmega128rfa1.a(uip-debug.o)
                                        0x20d (size before relaxing)
 .debug_str     0x00000000000059b7      0x123 contiki-avr-atmega128rfa1.a(rpl-ext-header.)
                                        0xa42 (size before relaxing)
 .debug_str     0x0000000000005ada      0x18f contiki-avr-atmega128rfa1.a(rpl.o)
                                        0xabf (size before relaxing)
 .debug_str     0x0000000000005c69       0xc5 contiki-avr-atmega128rfa1.a(rpl-mrhof.o)
                                        0x83b (size before relaxing)
 .debug_str     0x0000000000005d2e      0x49b contiki-avr-atmega128rfa1.a(rpl-dag.o)
                                        0xdc4 (size before relaxing)
 .debug_str     0x00000000000061c9       0x3f contiki-avr-atmega128rfa1.a(nullmac.o)
                                        0x3d1 (size before relaxing)
 .debug_str     0x0000000000006208      0x27b contiki-avr-atmega128rfa1.a(framer-802154.o)
                                        0x823 (size before relaxing)
 .debug_str     0x0000000000006483       0x8e contiki-avr-atmega128rfa1.a(frame802154.o)
                                        0x3fa (size before relaxing)
 .debug_str     0x0000000000006511       0x65 contiki-avr-atmega128rfa1.a(framer.o)
                                        0x27d (size before relaxing)
 .debug_str     0x0000000000006576      0x1bf contiki-avr-atmega128rfa1.a(queuebuf.o)
                                        0x705 (size before relaxing)
 .debug_str     0x0000000000006735      0x1ba contiki-avr-atmega128rfa1.a(nbr-table.o)
                                        0x5f8 (size before relaxing)
 .debug_str     0x00000000000068ef       0xe3 contiki-avr-atmega128rfa1.a(packetbuf.o)
                                        0x71c (size before relaxing)
 .debug_str     0x00000000000069d2       0x3a contiki-avr-atmega128rfa1.a(linkaddr.o)
                                        0x1f8 (size before relaxing)
 .debug_str     0x0000000000006a0c       0x4c contiki-avr-atmega128rfa1.a(sicslowmac.o)
                                        0xa24 (size before relaxing)
 .debug_str     0x0000000000006a58       0x68 contiki-avr-atmega128rfa1.a(rtimer-arch.o)
                                        0x40d (size before relaxing)
 .debug_str     0x0000000000006ac0       0x57 contiki-avr-atmega128rfa1.a(stimer.o)
                                        0x1ea (size before relaxing)
 .debug_str     0x0000000000006b17       0x38 contiki-avr-atmega128rfa1.a(memb.o)
                                        0x1d9 (size before relaxing)
 .debug_str     0x0000000000006b4f       0x43 contiki-avr-atmega128rfa1.a(nullsec.o)
                                        0x598 (size before relaxing)
 .debug_str     0x0000000000006b92      0x1b3 contiki-avr-atmega128rfa1.a(uip-icmp6.o)
                                        0x778 (size before relaxing)
 .debug_str     0x0000000000006d45      0x131 contiki-avr-atmega128rfa1.a(rpl-icmp6.o)
                                        0xeda (size before relaxing)
 .debug_str     0x0000000000006e76      0x100 contiki-avr-atmega128rfa1.a(rpl-timers.o)
                                        0x9e6 (size before relaxing)

.debug_loc      0x0000000000000000    0x19863
 *(.debug_loc)
 .debug_loc     0x0000000000000000      0x15a sdds.co
 .debug_loc     0x000000000000015a      0x7eb objs-128rfa1/sdds-DataSource.o
 .debug_loc     0x0000000000000945     0x18d2 objs-128rfa1/sdds-BuiltinTopic.o
 .debug_loc     0x0000000000002217      0x91c objs-128rfa1/sdds-DataSink.o
 .debug_loc     0x0000000000002b33      0xbbb objs-128rfa1/sdds-Marshalling.o
 .debug_loc     0x00000000000036ee       0xc0 objs-128rfa1/sdds-NetBuffRef.o
 .debug_loc     0x00000000000037ae      0x30b objs-128rfa1/sdds-TopicDB.o
 .debug_loc     0x0000000000003ab9      0x4dc objs-128rfa1/sdds-Discovery.o
 .debug_loc     0x0000000000003f95      0x20f objs-128rfa1/sdds-Msg.o
 .debug_loc     0x00000000000041a4      0x3f9 objs-128rfa1/sdds-Locator.o
 .debug_loc     0x000000000000459d       0xe9 objs-128rfa1/sdds-Debug.o
 .debug_loc     0x0000000000004686     0x1187 objs-128rfa1/sdds-SNPS.o
 .debug_loc     0x000000000000580d      0x36f objs-128rfa1/sdds-LocatorDB.o
 .debug_loc     0x0000000000005b7c      0x419 objs-128rfa1/sdds-Topic.o
 .debug_loc     0x0000000000005f95      0x18b objs-128rfa1/sdds-contiki-NodeConfig.o
 .debug_loc     0x0000000000006120      0xd33 objs-128rfa1/sdds-contiki-UDP.o
 .debug_loc     0x0000000000006e53      0x28a objs-128rfa1/sdds-contiki-Log.o
 .debug_loc     0x00000000000070dd       0x4c objs-128rfa1/sdds-contiki-Memory.o
 .debug_loc     0x0000000000007129      0x3ff objs-128rfa1/sdds-contiki-Task.o
 .debug_loc     0x0000000000007528      0x127 objs-128rfa1/atmega_sdds_impl.o
 .debug_loc     0x000000000000764f      0x40b objs-128rfa1/alpha-ds.o
 .debug_loc     0x0000000000007a5a      0x40b objs-128rfa1/beta-ds.o
 .debug_loc     0x0000000000007e65      0x61f contiki-avr-atmega128rfa1.a(contiki-main.o)
 .debug_loc     0x0000000000008484      0x2dd contiki-avr-atmega128rfa1.a(params.o)
 .debug_loc     0x0000000000008761      0x345 contiki-avr-atmega128rfa1.a(clock.o)
 .debug_loc     0x0000000000008aa6      0x3d0 contiki-avr-atmega128rfa1.a(rs232.o)
 .debug_loc     0x0000000000008e76       0x26 contiki-avr-atmega128rfa1.a(random.o)
 .debug_loc     0x0000000000008e9c      0xb9c contiki-avr-atmega128rfa1.a(rf230bb.o)
 .debug_loc     0x0000000000009a38      0x493 contiki-avr-atmega128rfa1.a(halbb.o)
 .debug_loc     0x0000000000009ecb       0xaa contiki-avr-atmega128rfa1.a(autostart.o)
 .debug_loc     0x0000000000009f75      0x158 contiki-avr-atmega128rfa1.a(energest.o)
 .debug_loc     0x000000000000a0cd      0x5b9 contiki-avr-atmega128rfa1.a(ctimer.o)
 .debug_loc     0x000000000000a686      0x5bb contiki-avr-atmega128rfa1.a(etimer.o)
 .debug_loc     0x000000000000ac41      0x5da contiki-avr-atmega128rfa1.a(process.o)
 .debug_loc     0x000000000000b21b      0x149 contiki-avr-atmega128rfa1.a(rtimer.o)
 .debug_loc     0x000000000000b364      0x20e contiki-avr-atmega128rfa1.a(timer.o)
 .debug_loc     0x000000000000b572      0x472 contiki-avr-atmega128rfa1.a(list.o)
 .debug_loc     0x000000000000b9e4      0x117 contiki-avr-atmega128rfa1.a(print-stats.o)
 .debug_loc     0x000000000000bafb      0xd58 contiki-avr-atmega128rfa1.a(uip-ds6.o)
 .debug_loc     0x000000000000c853      0xdda contiki-avr-atmega128rfa1.a(uip-ds6-route.o)
 .debug_loc     0x000000000000d62d      0x843 contiki-avr-atmega128rfa1.a(uip6.o)
 .debug_loc     0x000000000000de70      0x7bb contiki-avr-atmega128rfa1.a(uip-ds6-nbr.o)
 .debug_loc     0x000000000000e62b      0x385 contiki-avr-atmega128rfa1.a(uip-nd6.o)
 .debug_loc     0x000000000000e9b0      0xab1 contiki-avr-atmega128rfa1.a(sicslowpan.o)
 .debug_loc     0x000000000000f461      0x282 contiki-avr-atmega128rfa1.a(uip-packetqueue)
 .debug_loc     0x000000000000f6e3      0x1ed contiki-avr-atmega128rfa1.a(uip-udp-packet.)
 .debug_loc     0x000000000000f8d0      0xbbc contiki-avr-atmega128rfa1.a(tcpip.o)
 .debug_loc     0x000000000001048c       0xa1 contiki-avr-atmega128rfa1.a(uip-split.o)
 .debug_loc     0x000000000001052d      0x657 contiki-avr-atmega128rfa1.a(simple-udp.o)
 .debug_loc     0x0000000000010b84      0x3aa contiki-avr-atmega128rfa1.a(uiplib.o)
 .debug_loc     0x0000000000010f2e      0x36c contiki-avr-atmega128rfa1.a(uip-debug.o)
 .debug_loc     0x000000000001129a      0x386 contiki-avr-atmega128rfa1.a(rpl-ext-header.)
 .debug_loc     0x0000000000011620      0x625 contiki-avr-atmega128rfa1.a(rpl.o)
 .debug_loc     0x0000000000011c45      0x562 contiki-avr-atmega128rfa1.a(rpl-mrhof.o)
 .debug_loc     0x00000000000121a7     0x26f4 contiki-avr-atmega128rfa1.a(rpl-dag.o)
 .debug_loc     0x000000000001489b       0x72 contiki-avr-atmega128rfa1.a(nullmac.o)
 .debug_loc     0x000000000001490d      0x1aa contiki-avr-atmega128rfa1.a(framer-802154.o)
 .debug_loc     0x0000000000014ab7      0x908 contiki-avr-atmega128rfa1.a(frame802154.o)
 .debug_loc     0x00000000000153bf       0x57 contiki-avr-atmega128rfa1.a(framer.o)
 .debug_loc     0x0000000000015416      0x3d2 contiki-avr-atmega128rfa1.a(queuebuf.o)
 .debug_loc     0x00000000000157e8      0xda0 contiki-avr-atmega128rfa1.a(nbr-table.o)
 .debug_loc     0x0000000000016588      0x476 contiki-avr-atmega128rfa1.a(packetbuf.o)
 .debug_loc     0x00000000000169fe       0x82 contiki-avr-atmega128rfa1.a(linkaddr.o)
 .debug_loc     0x0000000000016a80      0x368 contiki-avr-atmega128rfa1.a(sicslowmac.o)
 .debug_loc     0x0000000000016de8      0x22a contiki-avr-atmega128rfa1.a(rtimer-arch.o)
 .debug_loc     0x0000000000017012      0x2d6 contiki-avr-atmega128rfa1.a(stimer.o)
 .debug_loc     0x00000000000172e8      0x1eb contiki-avr-atmega128rfa1.a(memb.o)
 .debug_loc     0x00000000000174d3       0xfb contiki-avr-atmega128rfa1.a(nullsec.o)
 .debug_loc     0x00000000000175ce      0x593 contiki-avr-atmega128rfa1.a(uip-icmp6.o)
 .debug_loc     0x0000000000017b61     0x113a contiki-avr-atmega128rfa1.a(rpl-icmp6.o)
 .debug_loc     0x0000000000018c9b      0xbc8 contiki-avr-atmega128rfa1.a(rpl-timers.o)

.debug_macinfo
 *(.debug_macinfo)

.debug_weaknames
 *(.debug_weaknames)

.debug_funcnames
 *(.debug_funcnames)

.debug_typenames
 *(.debug_typenames)

.debug_varnames
 *(.debug_varnames)

.debug_pubtypes
 *(.debug_pubtypes)

.debug_ranges   0x0000000000000000     0x19a8
 *(.debug_ranges)
 .debug_ranges  0x0000000000000000       0x10 sdds.co
 .debug_ranges  0x0000000000000010       0x60 objs-128rfa1/sdds-DataSource.o
 .debug_ranges  0x0000000000000070       0xe8 objs-128rfa1/sdds-BuiltinTopic.o
 .debug_ranges  0x0000000000000158       0xe8 objs-128rfa1/sdds-DataSink.o
 .debug_ranges  0x0000000000000240       0xa8 objs-128rfa1/sdds-Marshalling.o
 .debug_ranges  0x00000000000002e8       0x18 objs-128rfa1/sdds-NetBuffRef.o
 .debug_ranges  0x0000000000000300       0x68 objs-128rfa1/sdds-TopicDB.o
 .debug_ranges  0x0000000000000368       0x70 objs-128rfa1/sdds-Discovery.o
 .debug_ranges  0x00000000000003d8       0x30 objs-128rfa1/sdds-Msg.o
 .debug_ranges  0x0000000000000408       0x38 objs-128rfa1/sdds-Locator.o
 .debug_ranges  0x0000000000000440       0x10 objs-128rfa1/sdds-Debug.o
 .debug_ranges  0x0000000000000450       0xb8 objs-128rfa1/sdds-SNPS.o
 .debug_ranges  0x0000000000000508       0x40 objs-128rfa1/sdds-LocatorDB.o
 .debug_ranges  0x0000000000000548       0x30 objs-128rfa1/sdds-Topic.o
 .debug_ranges  0x0000000000000578       0x10 objs-128rfa1/sdds-contiki-NodeConfig.o
 .debug_ranges  0x0000000000000588       0x88 objs-128rfa1/sdds-contiki-UDP.o
 .debug_ranges  0x0000000000000610       0x38 objs-128rfa1/sdds-contiki-Log.o
 .debug_ranges  0x0000000000000648       0x20 objs-128rfa1/sdds-contiki-Memory.o
 .debug_ranges  0x0000000000000668       0x40 objs-128rfa1/sdds-contiki-Task.o
 .debug_ranges  0x00000000000006a8       0x18 objs-128rfa1/atmega_sdds_impl.o
 .debug_ranges  0x00000000000006c0       0x30 objs-128rfa1/alpha-ds.o
 .debug_ranges  0x00000000000006f0       0x30 objs-128rfa1/beta-ds.o
 .debug_ranges  0x0000000000000720       0x60 contiki-avr-atmega128rfa1.a(contiki-main.o)
 .debug_ranges  0x0000000000000780       0x30 contiki-avr-atmega128rfa1.a(params.o)
 .debug_ranges  0x00000000000007b0       0x50 contiki-avr-atmega128rfa1.a(clock.o)
 .debug_ranges  0x0000000000000800       0x50 contiki-avr-atmega128rfa1.a(rs232.o)
 .debug_ranges  0x0000000000000850       0x30 contiki-avr-atmega128rfa1.a(watchdog.o)
 .debug_ranges  0x0000000000000880       0x18 contiki-avr-atmega128rfa1.a(random.o)
 .debug_ranges  0x0000000000000898      0x138 contiki-avr-atmega128rfa1.a(rf230bb.o)
 .debug_ranges  0x00000000000009d0       0x70 contiki-avr-atmega128rfa1.a(halbb.o)
 .debug_ranges  0x0000000000000a40       0x18 contiki-avr-atmega128rfa1.a(autostart.o)
 .debug_ranges  0x0000000000000a58       0x30 contiki-avr-atmega128rfa1.a(energest.o)
 .debug_ranges  0x0000000000000a88       0x40 contiki-avr-atmega128rfa1.a(ctimer.o)
 .debug_ranges  0x0000000000000ac8       0xa8 contiki-avr-atmega128rfa1.a(etimer.o)
 .debug_ranges  0x0000000000000b70       0x78 contiki-avr-atmega128rfa1.a(process.o)
 .debug_ranges  0x0000000000000be8       0x20 contiki-avr-atmega128rfa1.a(rtimer.o)
 .debug_ranges  0x0000000000000c08       0x30 contiki-avr-atmega128rfa1.a(timer.o)
 .debug_ranges  0x0000000000000c38       0x68 contiki-avr-atmega128rfa1.a(list.o)
 .debug_ranges  0x0000000000000ca0       0x10 contiki-avr-atmega128rfa1.a(print-stats.o)
 .debug_ranges  0x0000000000000cb0       0xb8 contiki-avr-atmega128rfa1.a(uip-ds6.o)
 .debug_ranges  0x0000000000000d68       0xd0 contiki-avr-atmega128rfa1.a(uip-ds6-route.o)
 .debug_ranges  0x0000000000000e38       0xa0 contiki-avr-atmega128rfa1.a(uip6.o)
 .debug_ranges  0x0000000000000ed8       0x70 contiki-avr-atmega128rfa1.a(uip-ds6-nbr.o)
 .debug_ranges  0x0000000000000f48       0x60 contiki-avr-atmega128rfa1.a(uip-nd6.o)
 .debug_ranges  0x0000000000000fa8       0x80 contiki-avr-atmega128rfa1.a(sicslowpan.o)
 .debug_ranges  0x0000000000001028       0x40 contiki-avr-atmega128rfa1.a(uip-packetqueue)
 .debug_ranges  0x0000000000001068       0x18 contiki-avr-atmega128rfa1.a(uip-udp-packet.)
 .debug_ranges  0x0000000000001080       0xe0 contiki-avr-atmega128rfa1.a(tcpip.o)
 .debug_ranges  0x0000000000001160       0x10 contiki-avr-atmega128rfa1.a(uip-split.o)
 .debug_ranges  0x0000000000001170       0x30 contiki-avr-atmega128rfa1.a(simple-udp.o)
 .debug_ranges  0x00000000000011a0       0x18 contiki-avr-atmega128rfa1.a(uiplib.o)
 .debug_ranges  0x00000000000011b8       0x18 contiki-avr-atmega128rfa1.a(uip-debug.o)
 .debug_ranges  0x00000000000011d0       0x38 contiki-avr-atmega128rfa1.a(rpl-ext-header.)
 .debug_ranges  0x0000000000001208       0x50 contiki-avr-atmega128rfa1.a(rpl.o)
 .debug_ranges  0x0000000000001258       0x38 contiki-avr-atmega128rfa1.a(rpl-mrhof.o)
 .debug_ranges  0x0000000000001290      0x1b8 contiki-avr-atmega128rfa1.a(rpl-dag.o)
 .debug_ranges  0x0000000000001448       0x38 contiki-avr-atmega128rfa1.a(nullmac.o)
 .debug_ranges  0x0000000000001480       0x28 contiki-avr-atmega128rfa1.a(framer-802154.o)
 .debug_ranges  0x00000000000014a8       0x28 contiki-avr-atmega128rfa1.a(frame802154.o)
 .debug_ranges  0x00000000000014d0       0x10 contiki-avr-atmega128rfa1.a(framer.o)
 .debug_ranges  0x00000000000014e0       0x80 contiki-avr-atmega128rfa1.a(queuebuf.o)
 .debug_ranges  0x0000000000001560       0x98 contiki-avr-atmega128rfa1.a(nbr-table.o)
 .debug_ranges  0x00000000000015f8       0xc0 contiki-avr-atmega128rfa1.a(packetbuf.o)
 .debug_ranges  0x00000000000016b8       0x20 contiki-avr-atmega128rfa1.a(linkaddr.o)
 .debug_ranges  0x00000000000016d8       0x40 contiki-avr-atmega128rfa1.a(sicslowmac.o)
 .debug_ranges  0x0000000000001718       0x30 contiki-avr-atmega128rfa1.a(rtimer-arch.o)
 .debug_ranges  0x0000000000001748       0x38 contiki-avr-atmega128rfa1.a(stimer.o)
 .debug_ranges  0x0000000000001780       0x30 contiki-avr-atmega128rfa1.a(memb.o)
 .debug_ranges  0x00000000000017b0       0x30 contiki-avr-atmega128rfa1.a(nullsec.o)
 .debug_ranges  0x00000000000017e0       0x50 contiki-avr-atmega128rfa1.a(uip-icmp6.o)
 .debug_ranges  0x0000000000001830       0x90 contiki-avr-atmega128rfa1.a(rpl-icmp6.o)
 .debug_ranges  0x00000000000018c0       0xe8 contiki-avr-atmega128rfa1.a(rpl-timers.o)

.debug_macro
 *(.debug_macro)
OUTPUT(sdds.elf elf32-avr)
LOAD linker stubs

.bootloader     0x000000000001f800        0x0
